(lp0
ccopy_reg
_reconstructor
p1
(cword
Word
p2
c__builtin__
object
p3
Ntp4
Rp5
(dp6
S'definition'
p7
S'open and honest .'
p8
sS'section'
p9
S'Basic Words'
p10
sS'name'
p11
S'aboveboard (adjective):'
p12
sS'example'
p13
S'The mayor, despite his avuncular face plastered about the city, was hardly aboveboard -- some concluded that it was his ingratiating smile that allowed him to engage in corrupt behavior and get away with it.'
p14
sbag1
(g2
g3
Ntp15
Rp16
(dp17
g7
S'extremely bad .'
p18
sg9
g10
sg11
S'abysmal (adjective):'
p19
sg13
S'Coach Ramsey took his newest player off the field after watching a few painful minutes of her abysmal performance.'
p20
sbag1
(g2
g3
Ntp21
Rp22
(dp23
g7
S'the highest point of achievement .'
p24
sg9
g10
sg11
S'acme (noun):'
p25
sg13
S'The new Cessna airplanes will be the acme of comfort, offering reclining seats and ample legroom.'
p26
sbag1
(g2
g3
Ntp27
Rp28
(dp29
g7
S'speak, plead, or argue in favor of .'
p30
sg9
g10
sg11
S'advocate (verb):'
p31
sg13
S'While the senator privately approved of gay marriage, he was unwilling to advocate for the cause in a public venue. This word has other definitions but this is the most important one for the GRE'
p32
sbag1
(g2
g3
Ntp33
Rp34
(dp35
g7
S'a person who pleads for a cause or propounds an idea .'
p36
sg9
g10
sg11
S'advocate (noun):'
p37
sg13
S'Martin Luther King Jr. was a tireless advocate for the rights of African-Americans in the United States.\xc3\x82 This word has other definitions but this is the most important one for the GRE'
p38
sbag1
(g2
g3
Ntp39
Rp40
(dp41
g7
S'likeable; easy to talk to .'
p42
sg9
g10
sg11
S'affable (adjective):'
p43
sg13
S"For all his surface affability, Marco was remarkably glum when he wasn't around other people."
p44
sbag1
(g2
g3
Ntp45
Rp46
(dp47
g7
S'wealthy .'
p48
sg9
g10
sg11
S'affluent (adjective):'
p49
sg13
S'The center of the city had sadly become a pit of penury, while, only five miles away, multi-million dollar homes spoke of affluence.'
p50
sbag1
(g2
g3
Ntp51
Rp52
(dp53
g7
S'the quality of unselfish concern for the welfare of others .'
p54
sg9
g10
sg11
S'altruism (noun):'
p55
sg13
S'Albert Schweitzer spent most of his life doing missionary work as a doctor in Africa, seeking no reward, apparently motivated only by altruism.'
p56
sbag1
(g2
g3
Ntp57
Rp58
(dp59
g7
S'friendly .'
p60
sg9
g10
sg11
S'amiable (adjective):'
p61
sg13
S"Amy's name was very apt: she was so amiable that she was twice voted class president."
p62
sbag1
(g2
g3
Ntp63
Rp64
(dp65
g7
S'more than is adequate .'
p66
sg9
g10
sg11
S'amply (adverb):'
p67
sg13
S'The boat was amply supplied for its year at sea--no man would go hungry or thirst.'
p68
sbag1
(g2
g3
Ntp69
Rp70
(dp71
g7
S'in a frenzied or uncontrolled state .'
p72
sg9
g10
sg11
S'amuck (adverb):'
p73
sg13
S'Wherever the bowl haircut teen-idol went, his legions of screaming fans ran through the streets amuck, hoping for a glance at his boyish face.'
p74
sbag1
(g2
g3
Ntp75
Rp76
(dp77
g7
S'similar in some respects but otherwise different .'
p78
sg9
g10
sg11
S'analogous (adjective):'
p79
sg13
S"In many ways, the Internet's transformative effect on society has been analogous to that of the printing press."
p80
sbag1
(g2
g3
Ntp81
Rp82
(dp83
g7
S'intense hostility .'
p84
sg9
g10
sg11
S'animosity (noun):'
p85
sg13
S"The governor's animosity toward his rival was only inflamed when the latter spread false lies regarding the governor's first term."
p86
sbag1
(g2
g3
Ntp87
Rp88
(dp89
g7
S'precede in time .'
p90
sg9
g10
sg11
S'antedated (verb):'
p91
sg13
S'Harry was so unknowledgable that he was unaware the Egyptian pharaohs antedated the American Revolution.'
p92
sbag1
(g2
g3
Ntp93
Rp94
(dp95
g7
S'old-fashioned; belonging to an earlier period in time .'
p96
sg9
g10
sg11
S'antiquated (adjective):'
p97
sg13
S'Aunt Betty had antiquated notions about marriage, believing that a man should court a woman for at least a year before receiving a kiss.'
p98
sbag1
(g2
g3
Ntp99
Rp100
(dp101
g7
S'the highest point .'
p102
sg9
g10
sg11
S'apex (noun):'
p103
sg13
S'The Ivy League is considered the apex of the secondary education system.'
p104
sbag1
(g2
g3
Ntp105
Rp106
(dp107
g7
S'a short instructive saying about a general truth .'
p108
sg9
g10
sg11
S'aphorism (noun):'
p109
sg13
S'Nietzsche was known for using aphorisms, sometimes encapsulating a complex philosophical thought in a mere sentence.'
p110
sbag1
(g2
g3
Ntp111
Rp112
(dp113
g7
S'something that is a concise and instructive of a general truth or principle .'
p114
sg9
g10
sg11
S'aphoristic (adjective):'
p115
sg13
S"Sometimes I can't stand Nathan because he tries to impress everyone by being aphoristic, but he just states the obvious."
p116
sbag1
(g2
g3
Ntp117
Rp118
(dp119
g7
S'large enough to be noticed (usu. refers to an amount) .'
p120
sg9
g10
sg11
S'appreciable (adjective):'
p121
sg13
S'There is an appreciable difference between those who say they can get the job done and those who actually get the job done.'
p122
sbag1
(g2
g3
Ntp123
Rp124
(dp125
g7
S'fearful expectation .'
p126
sg9
g10
sg11
S'apprehension (noun):'
p127
sg13
S'Test day can be one of pure apprehension, as many students worry about their test scores.'
p128
sbag1
(g2
g3
Ntp129
Rp130
(dp131
g7
S'so old as to appear to belong to a different period .'
p132
sg9
g10
sg11
S'archaic (adjective):'
p133
sg13
S"Hoping to sound intelligent, Mary spoke in archaic English that was right out of Jane Austen's Pride and Prejudice--needless to say, she didn't have many friends."
p134
sbag1
(g2
g3
Ntp135
Rp136
(dp137
g7
S'the state that exists when one person or group has power over another .'
p138
sg9
g10
sg11
S'ascendancy (noun):'
p139
sg13
S'The ascendancy of the Carlsbad water polo team is clear--they have a decade of championships behind them.'
p140
sbag1
(g2
g3
Ntp141
Rp142
(dp143
g7
S'attribute or credit to .'
p144
sg9
g10
sg11
S'ascribe (verb):'
p145
sg13
S'History ascribes The Odyssey and The Illiad to Homer, but scholars now debate whether he was a historical figure or a fictitious name.'
p146
sbag1
(g2
g3
Ntp147
Rp148
(dp149
g7
S'attack in speech or writing .'
p150
sg9
g10
sg11
S'assail (verb):'
p151
sg13
S'In the weekly paper, the editor assailed the governor for wasting hundreds of thousands of dollars in public projects that quickly failed.'
p152
sbag1
(g2
g3
Ntp153
Rp154
(dp155
g7
S'make something intense less severe .'
p156
sg9
g10
sg11
S'assuage (verb):'
p157
sg13
S'Her fear that the new college would be filled with unknown faces was assuaged when she recognized her childhood friend standing in line.'
p158
sbag1
(g2
g3
Ntp159
Rp160
(dp161
g7
S'enlarge or increase; improve .'
p162
sg9
g10
sg11
S'augment (verb):'
p163
sg13
S"Ideally, the restaurant's augmented menu will expand its clientele and increase its profits."
p164
sbag1
(g2
g3
Ntp165
Rp166
(dp167
g7
S'.'
p168
sg9
g10
sg11
S'autonomously (adverb):'
p169
sg13
S'In an autonomous or self-governing manner. Many of the factory workers are worried about being replaced by machines and computers that will work completely autonomously.'
p170
sbag1
(g2
g3
Ntp171
Rp172
(dp173
g7
S'greed (one of the seven deadly sins) .'
p174
sg9
g10
sg11
S'avarice (noun):'
p175
sg13
S'The Spanish conquistadors were known for their avarice, plundering Incan land and stealing Incan gold.'
p176
sbag1
(g2
g3
Ntp177
Rp178
(dp179
g7
S'turn away .'
p180
sg9
g10
sg11
S'avert (verb):'
p181
sg13
S'Afraid to see the aftermath of the car crash, I averted my eyes as we drove by.'
p182
sbag1
(g2
g3
Ntp183
Rp184
(dp185
g7
S'ward off or prevent .'
p186
sg9
g10
sg11
S'avert (verb):'
p187
sg13
S'The struggling videogame company put all of its finances into one final, desperate project to avert bankrupcy.'
p188
sbag1
(g2
g3
Ntp189
Rp190
(dp191
g7
S'marked by active interest and enthusiasm .'
p192
sg9
g10
sg11
S'avid (adjective):'
p193
sg13
S'Martin is an avid birdwatcher, often taking long hikes into remote mountains to see some rare eagle.'
p194
sbag1
(g2
g3
Ntp195
Rp196
(dp197
g7
S'to pester .'
p198
sg9
g10
sg11
S'badger (verb):'
p199
sg13
S'Badgered by his parents to find a job, the 30-year-old loafer instead joined a gang of itinerant musicians. This word has other definitions but this is the most important one for the GRE'
p200
sbag1
(g2
g3
Ntp201
Rp202
(dp203
g7
S'refuse to comply .'
p204
sg9
g10
sg11
S'balk (verb):'
p205
sg13
S'The students were willing to clean up the broken glass, but when the teacher asked them to mop the entire floor, they balked, citing reasons why they needed to leave.'
p206
sbag1
(g2
g3
Ntp207
Rp208
(dp209
g7
S'expel from a community, residence, or location; drive away .'
p210
sg9
g10
sg11
S'banish (verb):'
p211
sg13
S'The most difficult part of the fast was banishing thoughts of food. This word has other definitions but this is the most important one for the GRE'
p212
sbag1
(g2
g3
Ntp213
Rp214
(dp215
g7
S'blissfully happy .'
p216
sg9
g10
sg11
S'beatific (adjective):'
p217
sg13
S'Often we imagine all monks to wear the beatific smile of the Buddha, but, like any of us, a monk can have a bad day and not look very happy.'
p218
sbag1
(g2
g3
Ntp219
Rp220
(dp221
g7
S'appropriate, and matches nicely .'
p222
sg9
g10
sg11
S'becoming (adjective):'
p223
sg13
S'Her dress was becoming and made her look even more beautiful. This word has other definitions but this is the most important one for the GRE'
p224
sbag1
(g2
g3
Ntp225
Rp226
(dp227
g7
S'to envy someone for possessing or enjoying something .'
p228
sg9
g10
sg11
S'begrudge (verb):'
p229
sg13
S'Sitting all alone in his room, Harvey begrudged the happiness of the other children playing outside his window.'
p230
sbag1
(g2
g3
Ntp231
Rp232
(dp233
g7
S'to give reluctantly .'
p234
sg9
g10
sg11
S'begrudge (verb):'
p235
sg13
S'We never begrudge money spent on ourselves.'
p236
sbag1
(g2
g3
Ntp237
Rp238
(dp239
g7
S"to be one's duty or obligation ."
p240
sg9
g10
sg11
S'behooves (verb):'
p241
sg13
S'The teacher looked down at the student and said, "It would behoove you to be in class on time and complete your homework, so that you don\'t repeat freshman English for a third straight year."'
p242
sbag1
(g2
g3
Ntp243
Rp244
(dp245
g7
S'lessen the importance, dignity, or reputation of .'
p246
sg9
g10
sg11
S'belittle (verb):'
p247
sg13
S'A good teacher will never belittle his students, but will instead empower them.'
p248
sbag1
(g2
g3
Ntp249
Rp250
(dp251
g7
S'warlike; inclined to quarrel .'
p252
sg9
g10
sg11
S'bellicose (adjective):'
p253
sg13
S'Known for their bellicose ways, the Spartans were once the most feared people from Peloponnesus to Persia.'
p254
sbag1
(g2
g3
Ntp255
Rp256
(dp257
g7
S'kind .'
p258
sg9
g10
sg11
S'benign (adjective):'
p259
sg13
S"I remember my grandfather's face was wrinkled, benign, and calm."
p260
sbag1
(g2
g3
Ntp261
Rp262
(dp263
g7
S'(medicine) not dangerous to health; not recurrent or progressive .'
p264
sg9
g10
sg11
S'benign (adjective):'
p265
sg13
S'The tumor located in your ear lobe seems to be benign and should not cause you any trouble.'
p266
sbag1
(g2
g3
Ntp267
Rp268
(dp269
g7
S'harass, as with questions or requests; cause to feel distressed or worried .'
p270
sg9
g10
sg11
S'besiege (verb):'
p271
sg13
S'After discovering a priceless artifact in her backyard, Jane was besieged by phone calls, emails, and reporters all trying to buy, hold or see the rare piece of history.'
p272
sbag1
(g2
g3
Ntp273
Rp274
(dp275
g7
S'damage the good name and reputation of someone .'
p276
sg9
g10
sg11
S'besmirch (verb):'
p277
sg13
S"The prince's distasteful choice of words besmirched not only his own name, but the reputation of the entire royal family."
p278
sbag1
(g2
g3
Ntp279
Rp280
(dp281
g7
S'having a depressing or gloomy outlook .'
p282
sg9
g10
sg11
S'bleak (adjective):'
p283
sg13
S"Unremitting overcast skies tend to lead people to create bleak literature and lugubrious music -- compare England's band Radiohead to any band from Southern California."
p284
sbag1
(g2
g3
Ntp285
Rp286
(dp287
g7
S'a desirable state .'
p288
sg9
g10
sg11
S'boon (noun):'
p289
sg13
S'Modern technology has been a boon to the travel industry.'
p290
sbag1
(g2
g3
Ntp291
Rp292
(dp293
g7
S'very close and convivial .'
p294
sg9
g10
sg11
S'boon (adjective):'
p295
sg13
S'He was a boon companion to many, and will be sadly missed.'
p296
sbag1
(g2
g3
Ntp297
Rp298
(dp299
g7
S'ill-mannered and coarse or contemptible in behavior or appearance .'
p300
sg9
g10
sg11
S'boorish (adjective):'
p301
sg13
S'Bukowski was known for being a boorish drunk and alienating close friends and family.'
p302
sbag1
(g2
g3
Ntp303
Rp304
(dp305
g7
S'in a blunt, direct manner .'
p306
sg9
g10
sg11
S'brusquely (adverb):'
p307
sg13
S'Not one for social pleasantries, the Chief of Staff would brusquely ask his subordinates anything he wanted, even coffee.'
p308
sbag1
(g2
g3
Ntp309
Rp310
(dp311
g7
S'resist .'
p312
sg9
g10
sg11
S'buck (verb):'
p313
sg13
S'The profits at our firm bucked the general downturn that effected the real estate industry. This word has other definitions but this is the most important one for the GRE'
p314
sbag1
(g2
g3
Ntp315
Rp316
(dp317
g7
S'make stronger or defensible .'
p318
sg9
g10
sg11
S'buttress (verb):'
p319
sg13
S"China's economy has been buttressed by a global demand for the electronic parts the country manufactures."
p320
sbag1
(g2
g3
Ntp321
Rp322
(dp323
g7
S'emaciated; gaunt .'
p324
sg9
g10
sg11
S'cadaverous (adjective):'
p325
sg13
S'Some actors take challenging roles in which they have to lose so much weight that they appear cadaverous.'
p326
sbag1
(g2
g3
Ntp327
Rp328
(dp329
g7
S'a straightforward and honest look at something .'
p330
sg9
g10
sg11
S'candid (adjective):'
p331
sg13
S'Even with a perfect stranger, Charles was always candid and would rarely hold anything back.'
p332
sbag1
(g2
g3
Ntp333
Rp334
(dp335
g7
S'the quality of being honest and straightforward in attitude and speech .'
p336
sg9
g10
sg11
S'candidness (noun):'
p337
sg13
S'Although I was unhappy that the relationship ended, I appreciated her candidness about why she was ready to move on from the relationship.'
p338
sbag1
(g2
g3
Ntp339
Rp340
(dp341
g7
S'of primary importance; fundamental .'
p342
sg9
g10
sg11
S'cardinal (adjective):'
p343
sg13
S'Most cultures consider gambling a cardinal sin and thus have outlawed its practice. This word has other definitions but this is the most important one for the GRE'
p344
sbag1
(g2
g3
Ntp345
Rp346
(dp347
g7
S'persistently petty and unjustified criticism .'
p348
sg9
g10
sg11
S'carping (adjective):'
p349
sg13
S'What seemed like incessant nagging and carping about my behavior from my mother turned out to be wise and useful advice that has served me well.'
p350
sbag1
(g2
g3
Ntp351
Rp352
(dp353
g7
S'something that speeds up an event .'
p354
sg9
g10
sg11
S'catalyst (noun):'
p355
sg13
S"Rosa Park's refusal to give up her bus seat acted as a catalyst for the Civil Rights Movement, setting into motion historic changes for African-Americans."
p356
sbag1
(g2
g3
Ntp357
Rp358
(dp359
g7
S'given to haughty disregard of others .'
p360
sg9
g10
sg11
S'cavalier (adjective):'
p361
sg13
S'Percy dismissed the issue with a cavalier wave of his hand.'
p362
sbag1
(g2
g3
Ntp363
Rp364
(dp365
g7
S'to examine and remove objectionable material .'
p366
sg9
g10
sg11
S'censor (verb):'
p367
sg13
S'Every fall, high school English teachers are inundated by requests to censor their curriculum by removing The Catcher in the Rye and Scarlet Letter from their reading lists.'
p368
sbag1
(g2
g3
Ntp369
Rp370
(dp371
g7
S'involving intelligence rather than emotions or instinct .'
p372
sg9
g10
sg11
S'cerebral (adjective):'
p373
sg13
S"A cerebral analysis of most pop music finds it to be simple and childish, but that ignores the point--the music's effect on the listener. This word has other definitions but this is the most important one for the GRE"
p374
sbag1
(g2
g3
Ntp375
Rp376
(dp377
g7
S'protect or fight for as a champion .'
p378
sg9
g10
sg11
S'champion (verb):'
p379
sg13
S'Martin Luther King Jr. championed civil rights fiercely throughout his short life. This word has other definitions but this is the most important one for the GRE'
p380
sbag1
(g2
g3
Ntp381
Rp382
(dp383
g7
S'a person who believes in the superiority of their group .'
p384
sg9
g10
sg11
S'chauvinist (noun):'
p385
sg13
S'The chauvinist lives on both sides of the political spectrum, outright shunning anybody whose ideas are not consistent with his own.'
p386
sbag1
(g2
g3
Ntp387
Rp388
(dp389
g7
S'to limit (usually modifying the growth of something) .'
p390
sg9
g10
sg11
S'check (verb):'
p391
sg13
S'Deserted for six months, the property began to look more like a jungle and less like a residence--weeds grew unchecked in the front yard This word has other definitions but this is the most important one for the GRE'
p392
sbag1
(g2
g3
Ntp393
Rp394
(dp395
g7
S'the condition of being held back or limited .'
p396
sg9
g10
sg11
S'check (noun):'
p397
sg13
S'When government abuses are not kept in check, that government is likely to become autocratic. This word has other definitions but this is the most important one for the GRE'
p398
sbag1
(g2
g3
Ntp399
Rp400
(dp401
g7
S'one that is marked by disreputable happenings .'
p402
sg9
g10
sg11
S'checkered (adjective):'
p403
sg13
S'One by one, the presidential candidates dropped out of the race, their respective checkered pasts-- from embezzlement to infidelity--sabotaging their campaigns. This word has other definitions but this is the most important one for the GRE'
p404
sbag1
(g2
g3
Ntp405
Rp406
(dp407
g7
S'being attentive to women like an ideal knight .'
p408
sg9
g10
sg11
S'chivalrous (adjective):'
p409
sg13
S"Marco's chivalrous ways, like opening doors and pulling out chairs, was much appreciated by his date."
p410
sbag1
(g2
g3
Ntp411
Rp412
(dp413
g7
S'leniency and compassion shown toward offenders by a person or agency charged with administering justice .'
p414
sg9
g10
sg11
S'clemency (noun):'
p415
sg13
S'In the final moments of the trial, during his closing speech, Phillips was nearly begging the judge for clemency.'
p416
sbag1
(g2
g3
Ntp417
Rp418
(dp419
g7
S'fuse or cause to grow together .'
p420
sg9
g10
sg11
S'coalesce (verb):'
p421
sg13
S'Over time, the various tribes coalesced into a single common culture with one universal language.'
p422
sbag1
(g2
g3
Ntp423
Rp424
(dp425
g7
S'clear and persuasive .'
p426
sg9
g10
sg11
S'cogent (adjective):'
p427
sg13
S'A cogent argument will change the minds of even the most skeptical audience.'
p428
sbag1
(g2
g3
Ntp429
Rp430
(dp431
g7
S'well integrated, forming a united whole .'
p432
sg9
g10
sg11
S'cohesive (adjective):'
p433
sg13
S'A well-written, cohesive essay will keep on topic at all times, never losing sight of the main argument.'
p434
sbag1
(g2
g3
Ntp435
Rp436
(dp437
g7
S'agreement on a secret plot .'
p438
sg9
g10
sg11
S'collusion (noun):'
p439
sg13
S"Many have argued that Lee Harvey Oswald, JFK's assassin, was in collusion with other criminals; others maintain that Oswald was a lone gunman."
p440
sbag1
(g2
g3
Ntp441
Rp442
(dp443
g7
S'so great in size or force or extent as to elicit awe .'
p444
sg9
g10
sg11
S'colossal (adjective):'
p445
sg13
S'Few appreciate the colossal scale of the sun: if hollow, it could contain a million Earths.'
p446
sbag1
(g2
g3
Ntp447
Rp448
(dp449
g7
S'worthy of high praise .'
p450
sg9
g10
sg11
S'commendable (adjective):'
p451
sg13
S'The efforts of the firefighters running into the burning building were commendable.'
p452
sbag1
(g2
g3
Ntp453
Rp454
(dp455
g7
S"contented to a fault with oneself or one's actions ."
p456
sg9
g10
sg11
S'complacent (adjective):'
p457
sg13
S"After the water polo team won their sixth championship, they became complacent and didn't even make it to the playoffs the next year."
p458
sbag1
(g2
g3
Ntp459
Rp460
(dp461
g7
S"enhancing each other's qualities (for two things or more). ."
p462
sg9
g10
sg11
S'complementary (adjective):'
p463
sg13
S'The head waiter was careful to tell the amateur diners that red wine was complementary with beef, each bringing out subtle taste notes in the other.'
p464
sbag1
(g2
g3
Ntp465
Rp466
(dp467
g7
S'make more intense, stronger, or more marked .'
p468
sg9
g10
sg11
S'compound (verb):'
p469
sg13
S'Her headache was compounded by the construction crew outside, which had six jackhammers going at the same time. This word has other definitions but this is the most important one for the GRE'
p470
sbag1
(g2
g3
Ntp471
Rp472
(dp473
g7
S'making a situation or outcome more likely to happen .'
p474
sg9
g10
sg11
S'conducive (adjective):'
p475
sg13
S'Studying in a quiet room is conducive to learning; studying in a noisy environment makes learning more difficult.'
p476
sbag1
(g2
g3
Ntp477
Rp478
(dp479
g7
S'taking part in immoral and unethical plots .'
p480
sg9
g10
sg11
S'conniving (verb):'
p481
sg13
S'The queen was so conniving that, with the help of the prince, she tried to overthrow the king.'
p482
sbag1
(g2
g3
Ntp483
Rp484
(dp485
g7
S'to make holy or set apart for a high purpose .'
p486
sg9
g10
sg11
S'consecrate (verb):'
p487
sg13
S'At the church of Notre Dame in France, the new High Altar was consecrated in 1182.'
p488
sbag1
(g2
g3
Ntp489
Rp490
(dp491
g7
S'something that limits or restricts .'
p492
sg9
g10
sg11
S'constraint (noun):'
p493
sg13
S'He found pop music a constraint on his ability to learn and preferred to listen to classical musical while studying.'
p494
sbag1
(g2
g3
Ntp495
Rp496
(dp497
g7
S'having or revealing supreme mastery or skill .'
p498
sg9
g10
sg11
S'consummate (adjective):'
p499
sg13
S'Tyler was the consummate musician: he was able to play the guitar, harmonica, and the drum at the same time. This word has other definitions but this is the most important one for the GRE'
p500
sbag1
(g2
g3
Ntp501
Rp502
(dp503
g7
S'to make perfect and complete in every respect .'
p504
sg9
g10
sg11
S'consummate (verb):'
p505
sg13
S'The restoration of the ancient church was only consummated after a twenty years of labor. This word has other definitions but this is the most important one for the GRE'
p506
sbag1
(g2
g3
Ntp507
Rp508
(dp509
g7
S'scornful, looking down at others with a sneering attitude .'
p510
sg9
g10
sg11
S'contemptuous (adjective):'
p511
sg13
S'Always on the forefront of fashion, Vanessa looked contemptuously at anyone wearing dated clothing.'
p512
sbag1
(g2
g3
Ntp513
Rp514
(dp515
g7
S'to be remorseful .'
p516
sg9
g10
sg11
S'contrite (adjective):'
p517
sg13
S"Though he stole his little sister's licorice stick with malevolent glee, Chucky soon became contrite when his sister wouldn't stop crying."
p518
sbag1
(g2
g3
Ntp519
Rp520
(dp521
g7
S'a difficult problem .'
p522
sg9
g10
sg11
S'conundrum (noun):'
p523
sg13
S'Computers have helped solve some of the mathematical conundrums which have puzzled man for many centuries.'
p524
sbag1
(g2
g3
Ntp525
Rp526
(dp527
g7
S'describing a lively atmosphere .'
p528
sg9
g10
sg11
S'convivial (adjective):'
p529
sg13
S"The wedding reception was convivial; friends who hadn't seen each other for ages drank and ate together before heading to the dance floor."
p530
sbag1
(g2
g3
Ntp531
Rp532
(dp533
g7
S'highly complex or intricate .'
p534
sg9
g10
sg11
S'convoluted (adjective):'
p535
sg13
S'Instead of solving the math problem in three simple steps, Kumar used a convoluted solution requiring fifteen steps.'
p536
sbag1
(g2
g3
Ntp537
Rp538
(dp539
g7
S'an abundant supply of something good .'
p540
sg9
g10
sg11
S'cornucopia (noun):'
p541
sg13
S'The International Food Expo was a cornucopia of culinary delights: gourmet foods from every continent were under one roof.'
p542
sbag1
(g2
g3
Ntp543
Rp544
(dp545
g7
S'to confirm or lend support to (usually an idea or claim) .'
p546
sg9
g10
sg11
S'corroborate (verb):'
p547
sg13
S'Her claim that frog populations were falling precipitously in Central America was corroborated by locals, who reported that many species of frogs had seemingly vanished overnight.'
p548
sbag1
(g2
g3
Ntp549
Rp550
(dp551
g7
S'comprising many cultures; global in reach and outlook .'
p552
sg9
g10
sg11
S'cosmopolitan (adjective):'
p553
sg13
S'There are few cities in the world as diverse and cosmopolitan as New York.'
p554
sbag1
(g2
g3
Ntp555
Rp556
(dp557
g7
S'belief in something .'
p558
sg9
g10
sg11
S'credence (noun):'
p559
sg13
S'He placed no credence in psychics, claiming that they offered no special powers beyond the ability to make people part with their money.'
p560
sbag1
(g2
g3
Ntp561
Rp562
(dp563
g7
S'deserving of praise but not that amazing .'
p564
sg9
g10
sg11
S'creditable (adjective):'
p565
sg13
S'Critics agreed the movie was creditable, but few gave it more than three out of five stars.'
p566
sbag1
(g2
g3
Ntp567
Rp568
(dp569
g7
S'tendency to believe readily .'
p570
sg9
g10
sg11
S'credulity (noun):'
p571
sg13
S"Virginia's wide-eyed credulity as a five-year old was replaced by suspicion after she learned that Santa Claus didn't really exist."
p572
sbag1
(g2
g3
Ntp573
Rp574
(dp575
g7
S'difficult to handle or use especially because of size or weight .'
p576
sg9
g10
sg11
S'cumbersome (adjective):'
p577
sg13
S'Only ten years ago, being an avid reader and a traveler meant carrying a cumbersome backpack stuffed with books--these days we need only an e-reader.'
p578
sbag1
(g2
g3
Ntp579
Rp580
(dp581
g7
S'a lack or shortage .'
p582
sg9
g10
sg11
S'dearth (noun):'
p583
sg13
S'I am surprised by the dearth of fast food chains; this is America and I assumed they were on every street.'
p584
sbag1
(g2
g3
Ntp585
Rp586
(dp587
g7
S'reduce the quality or value of something .'
p588
sg9
g10
sg11
S'debase (verb):'
p589
sg13
S'The third-rate script so debased the film that not even the flawless acting could save it from being a flop.'
p590
sbag1
(g2
g3
Ntp591
Rp592
(dp593
g7
S'expose as false ideas and claims, especially while ridiculing .'
p594
sg9
g10
sg11
S'debunk (verb):'
p595
sg13
S'Richard Dawkins tries to debunk religious belief, but his ridicule tends to push people away from his points rather than convince them.'
p596
sbag1
(g2
g3
Ntp597
Rp598
(dp599
g7
S'destroying or killing a large part of the population .'
p600
sg9
g10
sg11
S'decimation (noun):'
p601
sg13
S'The decimation after atomic bombs were dropped on Hiroshima and Nagasaki is incomprehensible.'
p602
sbag1
(g2
g3
Ntp603
Rp604
(dp605
g7
S'reduce in worth or character, usually verbally .'
p606
sg9
g10
sg11
S'degrade (verb):'
p607
sg13
S"Jesse had mockingly pointed out all of Nancy's faults in front of their friends, publicly degrading the poor girl."
p608
sbag1
(g2
g3
Ntp609
Rp610
(dp611
g7
S'give an assignment to (a person) .'
p612
sg9
g10
sg11
S'delegate (verb):'
p613
sg13
S'Since the senior manager had to go on many international business trips, she was forced to delegate many of her responsibilities to two lower-level managers. This word has other definitions but this is the most important one for the GRE'
p614
sbag1
(g2
g3
Ntp615
Rp616
(dp617
g7
S'think about carefully; weigh the pros and cons of an issue .'
p618
sg9
g10
sg11
S'deliberate (verb):'
p619
sg13
S'Emergency situations such as this call for immediate action and leave no room to deliberate over options. This word has other definitions but this is the most important one for the GRE'
p620
sbag1
(g2
g3
Ntp621
Rp622
(dp623
g7
S'to insult; to cause someone to lose dignity or respect .'
p624
sg9
g10
sg11
S'demean (verb):'
p625
sg13
S"At first the soccer players bantered back and forth, but as soon as one of the players became demeaning, calling the other's mother a water buffalo, the ref whipped out a red card."
p626
sbag1
(g2
g3
Ntp627
Rp628
(dp629
g7
S'to be modest and shy .'
p630
sg9
g10
sg11
S'demure (adjective):'
p631
sg13
S'The portrait of her in a simple white blouse was sweet and demure.'
p632
sbag1
(g2
g3
Ntp633
Rp634
(dp635
g7
S'treat or speak of with contempt .'
p636
sg9
g10
sg11
S'deride (verb):'
p637
sg13
S'The nun derided the students for trying to sneak insects and worms into the classroom.'
p638
sbag1
(g2
g3
Ntp639
Rp640
(dp641
g7
S'abusing vocally; expressing contempt or ridicule .'
p642
sg9
g10
sg11
S'derisive (adjective):'
p643
sg13
S'I was surprised by her derisive tone; usually, she is sweet, soft spoken, and congenial.'
p644
sbag1
(g2
g3
Ntp645
Rp646
(dp647
g7
S'expressed as worthless or in negative terms .'
p648
sg9
g10
sg11
S'derogative (adjective):'
p649
sg13
S'Never before have we seen a debate between two political candidates that was so derogative and filthy.'
p650
sbag1
(g2
g3
Ntp651
Rp652
(dp653
g7
S'to willfully violate or destroy a sacred place .'
p654
sg9
g10
sg11
S'desecrate (verb):'
p655
sg13
S"After desecrating the pharaoh's tomb, the archaeologist soon fell victim to a horrible illness."
p656
sbag1
(g2
g3
Ntp657
Rp658
(dp659
g7
S'poor enough to need help from others .'
p660
sg9
g10
sg11
S'destitute (adjective):'
p661
sg13
S'Jean Valjean, is at first destitute, but through the grace of a priest, he makes something of his life.'
p662
sbag1
(g2
g3
Ntp663
Rp664
(dp665
g7
S'completely wanting or lacking (usually "destitute of") .'
p666
sg9
g10
sg11
S'destitute (adjective):'
p667
sg13
S'Now that the mine is closed, the town is destitute of any economic activity.'
p668
sbag1
(g2
g3
Ntp669
Rp670
(dp671
g7
S'turn away from by persuasion .'
p672
sg9
g10
sg11
S'deter (verb):'
p673
sg13
S'His mother tried to deter him from joing the army, but he was too intoxicated with the idea of war to listen.'
p674
sbag1
(g2
g3
Ntp675
Rp676
(dp677
g7
S'try to prevent; show opposition to .'
p678
sg9
g10
sg11
S'deter (verb):'
p679
sg13
S"The government's primary job should invlove deterring paths to war, not finding ways to start them."
p680
sbag1
(g2
g3
Ntp681
Rp682
(dp683
g7
S'(sometimes followed by "to") causing harm or injury .'
p684
sg9
g10
sg11
S'detrimental (adjective):'
p685
sg13
S'Many know that smoking is detrimental to your health, but processed sugar in large quantities is equally bad.'
p686
sbag1
(g2
g3
Ntp687
Rp688
(dp689
g7
S'pass on or delegate to another .'
p690
sg9
g10
sg11
S'devolve (verb):'
p691
sg13
S'The company was full of managers known for devolving tasks to lower management, but never doing much work themselves.'
p692
sbag1
(g2
g3
Ntp693
Rp694
(dp695
g7
S'grow worse (usually "devolve into") .'
p696
sg9
g10
sg11
S'devolve (verb):'
p697
sg13
S'The dialogue between the two academics devolved into a downright bitter argument.'
p698
sbag1
(g2
g3
Ntp699
Rp700
(dp701
g7
S'to be extremely wicked like the devil .'
p702
sg9
g10
sg11
S'diabolical (adjective):'
p703
sg13
S'The conspirators, willing to dispatch anyone who stood in their way, hatched a diabolical plan to take over the city.'
p704
sbag1
(g2
g3
Ntp705
Rp706
(dp707
g7
S'be a distinctive feature, attribute, or trait (sometimes in positive sense) .'
p708
sg9
g10
sg11
S'differentiate (verb):'
p709
sg13
S"Mozart's long melodic lines differentiate his compositions from other works of late 18th century music."
p710
sbag1
(g2
g3
Ntp711
Rp712
(dp713
g7
S'evolve so as to lead to a new species or develop in a way most suited to the environment .'
p714
sg9
g10
sg11
S'differentiate (verb):'
p715
sg13
S'Animals on Madagascar differentiated from other similar animal species due to many years of isolation on the island.'
p716
sbag1
(g2
g3
Ntp717
Rp718
(dp719
g7
S'in terrible condition .'
p720
sg9
g10
sg11
S'dilapidated (adjective):'
p721
sg13
S'The main house has been restored but the gazebo is still dilapidated and unuseable.'
p722
sbag1
(g2
g3
Ntp723
Rp724
(dp725
g7
S'characterized by care and perseverance in carrying out tasks .'
p726
sg9
g10
sg11
S'diligent (adjective):'
p727
sg13
S'Michael was a diligent gardener, never leaving a leaf on the ground and regularly watering each plant.'
p728
sbag1
(g2
g3
Ntp729
Rp730
(dp731
g7
S'lack of agreement or harmony .'
p732
sg9
g10
sg11
S'discord (noun):'
p733
sg13
S'Despite all their talented players, the team was filled with discord--some players refused to talk to others--and lost most of their games.'
p734
sbag1
(g2
g3
Ntp735
Rp736
(dp737
g7
S"careful to protect one's speech or actions in order to avoid offense or gain an advantage ."
p738
sg9
g10
sg11
S'discreet (adjective):'
p739
sg13
S'The professor thought that he was discreet, subtly wiping the stain off of his shirt, but as soon as he stepped off the podium a member of the audience pointed out the large ketchup stain.'
p740
sbag1
(g2
g3
Ntp741
Rp742
(dp743
g7
S'recognize or perceive the difference .'
p744
sg9
g10
sg11
S'discriminate (verb):'
p745
sg13
S"Sarah couldn't discriminate between a good wine and a bad wine, so she avoided wine tastings. This word has other definitions but this is the most important one for the GRE"
p746
sbag1
(g2
g3
Ntp747
Rp748
(dp749
g7
S'deprive of voting rights .'
p750
sg9
g10
sg11
S'disenfranchise (verb):'
p751
sg13
S'The U.S. Constitution disenfranchised women until 1920 when they were given the right to vote.'
p752
sbag1
(g2
g3
Ntp753
Rp754
(dp755
g7
S'made less hopeful or enthusiastic .'
p756
sg9
g10
sg11
S'disheartened (adjective):'
p757
sg13
S"After the visiting team scored nine times, the home team's fans were disheartened, some leaving the game early."
p758
sbag1
(g2
g3
Ntp759
Rp760
(dp761
g7
S'two things are fundamentally different .'
p762
sg9
g10
sg11
S'disparate (adjective):'
p763
sg13
S'With the advent of machines capable of looking inside the brain, fields as disparate as religion and biology have been brought together by scientists trying to understand what happens in the brain when people have a religious experience.'
p764
sbag1
(g2
g3
Ntp765
Rp766
(dp767
g7
S''
p768
sg9
g10
sg11
S'dispatch (noun):'
p769
sg13
g768
sbag1
(g2
g3
Ntp770
Rp771
(dp772
g7
g768
sg9
g10
sg11
S'dispatch (verb):'
p773
sg13
g768
sbag1
(g2
g3
Ntp774
Rp775
(dp776
g7
S'easily handled or managed; willing to be taught or led or supervised or directed .'
p777
sg9
g10
sg11
S'docile (adjective):'
p778
sg13
S'Barnyard animals are considerably more docile than the wild animals.'
p779
sbag1
(g2
g3
Ntp780
Rp781
(dp782
g7
S'to pursue relentlessly; to hound .'
p783
sg9
g10
sg11
S'dog (verb):'
p784
sg13
S'Throughout his life, he was dogged by insecurities that inhibited personal growth. This word has other definitions but this is the most important one for the GRE'
p785
sbag1
(g2
g3
Ntp786
Rp787
(dp788
g7
S'to trick or swindle .'
p789
sg9
g10
sg11
S'dupe (verb):'
p790
sg13
S'Once again a get-rich-fast Internt scheme had duped Harold into submitting a $5,000 check to a sham operation.'
p791
sbag1
(g2
g3
Ntp792
Rp793
(dp794
g7
S'a person who is easily tricked or swindled .'
p795
sg9
g10
sg11
S'dupe (noun):'
p796
sg13
S'The charlatan mistook the crowd for a bunch of dupes, but the crowd was quickly on to him and decried his bald-faced attempt to bilk them.'
p797
sbag1
(g2
g3
Ntp798
Rp799
(dp800
g7
S'highly unconventional or usual (usually describes a person) .'
p801
sg9
g10
sg11
S'eccentric (adjective):'
p802
sg13
S'Mozart was well-known for his eccentricities, often speaking words backward to confuse those around him.'
p803
sbag1
(g2
g3
Ntp804
Rp805
(dp806
g7
S'a conceited and self-centered person .'
p807
sg9
g10
sg11
S'egotist (noun):'
p808
sg13
S'An egotist, Natasha had few friends because of her inability to talk about anything except her dream of becoming the next American Idol.'
p809
sbag1
(g2
g3
Ntp810
Rp811
(dp812
g7
g168
sg9
g10
sg11
S'eke (verb):'
p813
sg13
S'To live off meager resources, to scrape by Stranded in a cabin over the winter, Terry was able to eke out an existence on canned food.'
p814
sbag1
(g2
g3
Ntp815
Rp816
(dp817
g7
S'marked by complexity and richness of detail .'
p818
sg9
g10
sg11
S'elaborate (adjective):'
p819
sg13
S"Thomas, on returning from Morocco, replaced his dirty gray carpet with an elaborate one he'd brought back with him."
p820
sbag1
(g2
g3
Ntp821
Rp822
(dp823
g7
S'explain in more detail .'
p824
sg9
g10
sg11
S'elaborate (verb):'
p825
sg13
S'Most high school physics teachers find themselves elaborating the same point over and over again, since many concepts confuse students.'
p826
sbag1
(g2
g3
Ntp827
Rp828
(dp829
g7
S'escape understanding .'
p830
sg9
g10
sg11
S'elude (verb):'
p831
sg13
S'Even a basic understanding of physics can elude most high schools students.'
p832
sbag1
(g2
g3
Ntp833
Rp834
(dp835
g7
S'difficult to capture or difficult to remember .'
p836
sg9
g10
sg11
S'elusive (adjective):'
p837
sg13
S'Many first time skydivers say that describing the act of falling from the sky is elusive.'
p838
sbag1
(g2
g3
Ntp839
Rp840
(dp841
g7
S'make more attractive by adding ornament, colour, etc.; make more beautiful .'
p842
sg9
g10
sg11
S'embellish (verb):'
p843
sg13
S'McCartney would write relatively straightforward lyrics, and Lennon would embellish them with puns and poetic images.'
p844
sbag1
(g2
g3
Ntp845
Rp846
(dp847
g7
S'involved in argument or contention .'
p848
sg9
g10
sg11
S'embroiled (adjective):'
p849
sg13
S'These days we are never short of a D.C. politician embroiled in scandal--a welcome phenomenon for those who, having barely finished feasting on the sordid details of one imbroglio, can sink their teeth into a fresh one.'
p850
sbag1
(g2
g3
Ntp851
Rp852
(dp853
g7
S"showing understanding and ready comprehension of other peoples' states and emotions ."
p854
sg9
g10
sg11
S'empathetic (adjective):'
p855
sg13
S'Most discrimination and hatred is based on a lack of empathetic awareness of people that have the same aspitations and fears.'
p856
sbag1
(g2
g3
Ntp857
Rp858
(dp859
g7
S'strive to equal or match, especially by imitating; compete with successfully .'
p860
sg9
g10
sg11
S'emulate (verb):'
p861
sg13
S'To really become fluent in a new language, emulate the speech patterns and intonation of people who speak the language.'
p862
sbag1
(g2
g3
Ntp863
Rp864
(dp865
g7
S'native; originating where it is found .'
p866
sg9
g10
sg11
S'endemic (adjective):'
p867
sg13
S'Irish cuisine makes great use of potatoes, but ironically, the potato is not endemic to Ireland.'
p868
sbag1
(g2
g3
Ntp869
Rp870
(dp871
g7
S'a state of deep-seated ill-will .'
p872
sg9
g10
sg11
S'enmity (noun):'
p873
sg13
S'Charles rude remark toward Sarah yesterday was due to his illness, not due to any real enmity toward Sarah.'
p874
sbag1
(g2
g3
Ntp875
Rp876
(dp877
g7
S'get someone to do something through (often false or exaggerated) promises .'
p878
sg9
g10
sg11
S'entice (verb):'
p879
sg13
S'Harold enticed his wife, Maude, to go on a vacation to Hawaii, with promises of luaus on the beach and all-you-can-eat seafood buffets.'
p880
sbag1
(g2
g3
Ntp881
Rp882
(dp883
g7
S'determine the number or amount of .'
p884
sg9
g10
sg11
S'enumerate (verb):'
p885
sg13
S'The survey enumerates the number of happy workers and the number of unhappy workers.'
p886
sbag1
(g2
g3
Ntp887
Rp888
(dp889
g7
S'specify individually, one by one .'
p890
sg9
g10
sg11
S'enumerate (verb):'
p891
sg13
S'I sat and listened as she enumerated all of the things she did not like about the past three months.'
p892
sbag1
(g2
g3
Ntp893
Rp894
(dp895
g7
S'to make an error .'
p896
sg9
g10
sg11
S'err (verb):'
p897
sg13
S'He erred in thinking that "indigent" and "indignant" were synonyms.'
p898
sbag1
(g2
g3
Ntp899
Rp900
(dp901
g7
S'to be wandering; not sticking to a circumscribed path .'
p902
sg9
g10
sg11
S'errant (adjective):'
p903
sg13
S'Unlike his peers, who spent their hours studying in the library, Matthew preferred errant walks through the university campus.'
p904
sbag1
(g2
g3
Ntp905
Rp906
(dp907
g7
S'unpredictable; strange and unconventional .'
p908
sg9
g10
sg11
S'erratic (adjective):'
p909
sg13
S"It came as no surprise to pundits that the President's attempt at re-election floundered; even during his term, support for his policies was erratic, with an approval rating jumping anywhere from 30 to 60 percent."
p910
sbag1
(g2
g3
Ntp911
Rp912
(dp913
g7
S'a feeling of great (usually exaggerated) elation .'
p914
sg9
g10
sg11
S'euphoria (noun):'
p915
sg13
S'The euphoria of winning her first gold medal in the 100 meter dash overwhelmed Shelly-Ann Fraser and she wept tears of immense joy.'
p916
sbag1
(g2
g3
Ntp917
Rp918
(dp919
g7
S'avoiding or escaping from difficulty or danger or commitment .'
p920
sg9
g10
sg11
S'evasive (adjective):'
p921
sg13
S'His responses were clearly evasive; he obviously did not want to take on any responsibility or any new work.'
p922
sbag1
(g2
g3
Ntp923
Rp924
(dp925
g7
S'deliberately vague or ambiguous .'
p926
sg9
g10
sg11
S'evasive (adjective):'
p927
sg13
S'Every time I call the bank, I receive the same evasive answers about our mortgage and never get a clear response.'
p928
sbag1
(g2
g3
Ntp929
Rp930
(dp931
g7
S'without partiality .'
p932
sg9
g10
sg11
S'evenhanded (adjective):'
p933
sg13
S'Teachers often have trouble being evenhanded to all of their varied students.'
p934
sbag1
(g2
g3
Ntp935
Rp936
(dp937
g7
S'to irritate intensely .'
p938
sg9
g10
sg11
S'exasperate (verb):'
p939
sg13
S'As a child, I exasperated my mother with strings of never-ending questions.'
p940
sbag1
(g2
g3
Ntp941
Rp942
(dp943
g7
S'extremely painful .'
p944
sg9
g10
sg11
S'excruciating (adjective):'
p945
sg13
S"After the boulder rolled a couple of feet, pinning my friend's arm, he experienced excruciating pain."
p946
sbag1
(g2
g3
Ntp947
Rp948
(dp949
g7
S'be characteristic of .'
p950
sg9
g10
sg11
S'exemplify (verb):'
p951
sg13
S'Lincoln exemplified the best of not only America, but also the potential greatness that exists within each person.'
p952
sbag1
(g2
g3
Ntp953
Rp954
(dp955
g7
S'clarify by giving an example of .'
p956
sg9
g10
sg11
S'exemplify (verb):'
p957
sg13
S'Please present some case studies that exemplify the results that you claim in your paper.'
p958
sbag1
(g2
g3
Ntp959
Rp960
(dp961
g7
S'to strongly urge on; encourage .'
p962
sg9
g10
sg11
S'exhort (verb):'
p963
sg13
S"Nelson's parents exhorted him to study medicine, urging him to choose a respectable profession; intransigent, Nelson left home to become a graffiti artist."
p964
sbag1
(g2
g3
Ntp965
Rp966
(dp967
g7
S'making less guilty or more forgivable .'
p968
sg9
g10
sg11
S'extenuating (adjective):'
p969
sg13
S"The jury was hardly moved by the man's plea that his loneliness was an extenuating factor in his crime of dognapping a prized pooch."
p970
sbag1
(g2
g3
Ntp971
Rp972
(dp973
g7
S'cleverly amusing in tone .'
p974
sg9
g10
sg11
S'facetious (adjective):'
p975
sg13
S"Facetious behavior will not be tolerated during sex eduation class; it's time for all of you to treat these matters like mature adults."
p976
sbag1
(g2
g3
Ntp977
Rp978
(dp979
g7
S'try to gain favor by extreme flattery .'
p980
sg9
g10
sg11
S'fawn (verb):'
p981
sg13
S'The media fawned over the handsome new CEO, praising his impeccable sense of style instead of asking more pointed questions. This word has other definitions but this is the most important one for the GRE'
p982
sbag1
(g2
g3
Ntp983
Rp984
(dp985
g7
S'to search for something persistently .'
p986
sg9
g10
sg11
S'ferret (verb):'
p987
sg13
S'Ever the resourceful lexicographer, Fenton was able to ferret out the word origin of highly obscure words. This word has other definitions but this is the most important one for the GRE'
p988
sbag1
(g2
g3
Ntp989
Rp990
(dp991
g7
S'to celebrate a person .'
p992
sg9
g10
sg11
S'fete (verb):'
p993
sg13
S'After World War II, war heroes were feted at first but quickly forgotten.'
p994
sbag1
(g2
g3
Ntp995
Rp996
(dp997
g7
S'liable to sudden unpredictable change, esp. in affections or attachments .'
p998
sg9
g10
sg11
S'fickle (adjective):'
p999
sg13
S'She was so fickle in her politics, it was hard to pinpoint her beliefs; one week she would embrace a side, and the next week she would denounce it.'
p1000
sbag1
(g2
g3
Ntp1001
Rp1002
(dp1003
g7
S'achieve something by means of trickery or devious methods .'
p1004
sg9
g10
sg11
S'finagle (verb):'
p1005
sg13
S'Steven was able to finagle one of the last seats on the train by convincing the conductor that his torn stub was actually a valid ticket.'
p1006
sbag1
(g2
g3
Ntp1007
Rp1008
(dp1009
g7
S'young and inexperienced; describing any new participant in some activity .'
p1010
sg9
g10
sg11
S'fledgling (adjective):'
p1011
sg13
S'Murray has years of experience in family practice, but he is just a fledgling in surgery.'
p1012
sbag1
(g2
g3
Ntp1013
Rp1014
(dp1015
g7
S'to deceive .'
p1016
sg9
g10
sg11
S'fleece (verb):'
p1017
sg13
S'Many people have been fleeced by Internet scams and never received their money back. This word has other definitions but this is the most important one for the GRE'
p1018
sbag1
(g2
g3
Ntp1019
Rp1020
(dp1021
g7
S'behave awkwardly; have difficulties .'
p1022
sg9
g10
sg11
S'flounder (verb):'
p1023
sg13
S'Sylvia has excelled at advanced calculus, but ironically, when she has deal with taxes, she flounders.'
p1024
sbag1
(g2
g3
Ntp1025
Rp1026
(dp1027
g7
S'to be in abundance .'
p1028
sg9
g10
sg11
S'flush (adjective):'
p1029
sg13
S"The exam's passage is flush with difficult words, words that you may have learned only yesterday."
p1030
sbag1
(g2
g3
Ntp1031
Rp1032
(dp1033
g7
S'a behavioral attribute that is distinctive and peculiar to an individual .'
p1034
sg9
g10
sg11
S'foible (noun):'
p1035
sg13
S'When their new roommate sat staring at an oak tree for an hour, Marcia thought it indicated a mental problem, but Jeff assured her it was a harmless foible.'
p1036
sbag1
(g2
g3
Ntp1037
Rp1038
(dp1039
g7
S'marked by defiant disregard for danger or consequences .'
p1040
sg9
g10
sg11
S'foolhardy (adjective):'
p1041
sg13
S'The police regularly face dangerous situations, so for a police officer not to wear his bullet-proof vest is foolhardy.'
p1042
sbag1
(g2
g3
Ntp1043
Rp1044
(dp1045
g7
S'characterized by directness in manner or speech; without subtlety or evasion .'
p1046
sg9
g10
sg11
S'forthright (adjective):'
p1047
sg13
S'I did not expect the insurance agent to give us any straight answers, but I was pleasent surprised by how forthright he was.'
p1048
sbag1
(g2
g3
Ntp1049
Rp1050
(dp1051
g7
S'producing no result or effect; unproductive of success .'
p1052
sg9
g10
sg11
S'futile (adjective):'
p1053
sg13
S'I thought I could repair the car myself, but after two days of work with no success, I have to admit that my efforts were futile.'
p1054
sbag1
(g2
g3
Ntp1055
Rp1056
(dp1057
g7
S'agreeable, conducive to comfort .'
p1058
sg9
g10
sg11
S'genial (adjective):'
p1059
sg13
S'Betty is a genial young woman: everyone she meets is put at ease by her elegance and grace.'
p1060
sbag1
(g2
g3
Ntp1061
Rp1062
(dp1063
g7
S'marked by refinement in taste and manners .'
p1064
sg9
g10
sg11
S'genteel (adjective):'
p1065
sg13
S'A live string quartet would provide a more genteel air to the wedding than would a folk singer.'
p1066
sbag1
(g2
g3
Ntp1067
Rp1068
(dp1069
g7
S'collect information bit by bit .'
p1070
sg9
g10
sg11
S'glean (verb):'
p1071
sg13
S'Herb has given us no formal statement about his background, but from various hints, I have gleaned that he grew up in difficult circumstances.'
p1072
sbag1
(g2
g3
Ntp1073
Rp1074
(dp1075
g7
S'(of a person) speaking with ease but without sincerity .'
p1076
sg9
g10
sg11
S'glib (adjective):'
p1077
sg13
S'I have found that the more glib the salesman, the worse the product.'
p1078
sbag1
(g2
g3
Ntp1079
Rp1080
(dp1081
g7
S'urge on with unpleasant comments .'
p1082
sg9
g10
sg11
S'goad (verb):'
p1083
sg13
S'Doug did not want to enter the race, but Jim, through a steady stream of taunts, goaded him into signing up for it.'
p1084
sbag1
(g2
g3
Ntp1085
Rp1086
(dp1087
g7
S'show submission or fear .'
p1088
sg9
g10
sg11
S'grovel (verb):'
p1089
sg13
S'Every time Susan comes to the office, Frank grovels as if she were about to fire.'
p1090
sbag1
(g2
g3
Ntp1091
Rp1092
(dp1093
g7
S'laugh boisterously .'
p1094
sg9
g10
sg11
S'guffaw (verb):'
p1095
sg13
S'Whenever the jester fell to the ground in mock pain, the king guffawed, exposing his yellow, fang-like teeth.'
p1096
sbag1
(g2
g3
Ntp1097
Rp1098
(dp1099
g7
S'prevent the progress or free movement of .'
p1100
sg9
g10
sg11
S'hamper (verb):'
p1101
sg13
S'As the rain water began to collect in pools on the highway, it began to hamper the flow of traffic. This word has other definitions but this is the most important one for the GRE'
p1102
sbag1
(g2
g3
Ntp1103
Rp1104
(dp1105
g7
S'made ineffective or powerless .'
p1106
sg9
g10
sg11
S'hamstrung (verb):'
p1107
sg13
S'The FBI has made so many restriction on the local police that they are absolutely hamstrung, unable to accomplish anything.'
p1108
sbag1
(g2
g3
Ntp1109
Rp1110
(dp1111
g7
S'the pinnacle or top of a time period or career .'
p1112
sg9
g10
sg11
S'heyday (noun):'
p1113
sg13
S'During the heyday of Prohibition, bootlegging had become such a lucrative business that many who had been opposed to the 18th Amendment began to fear it would be repealed.'
p1114
sbag1
(g2
g3
Ntp1115
Rp1116
(dp1117
g7
S'a confusing mixture or jumble .'
p1118
sg9
g10
sg11
S'hodgepodge (noun):'
p1119
sg13
S"Those in attendance represented a hodgepodge of the city's denizens: chimney sweepers could be seen sitting elbow to elbow with stockbrokers."
p1120
sbag1
(g2
g3
Ntp1121
Rp1122
(dp1123
g7
S'to pursue relentlessly .'
p1124
sg9
g10
sg11
S'hound (verb):'
p1125
sg13
S'An implacable foe of corruption, Eliot Ness hounded out graft in all forms--he even helped nab Al Capone. This word has other definitions but this is the most important one for the GRE'
p1126
sbag1
(g2
g3
Ntp1127
Rp1128
(dp1129
g7
S'dull and lacking excitement .'
p1130
sg9
g10
sg11
S'humdrum (adjective):'
p1131
sg13
S'Having grown up in a humdrum suburb, Jacob relished life in New York City after moving.'
p1132
sbag1
(g2
g3
Ntp1133
Rp1134
(dp1135
g7
S'contrary to or forbidden by law .'
p1136
sg9
g10
sg11
S'illicit (adjective):'
p1137
sg13
S'Though Al Capone was engaged in many illicit activities, he was finally arrested for income tax evasion, a relatively minor offense.'
p1138
sbag1
(g2
g3
Ntp1139
Rp1140
(dp1141
g7
S'not relevant .'
p1142
sg9
g10
sg11
S'immaterial (adjective):'
p1143
sg13
S"The judge found the defendant's comments immaterial to the trial, and summarily dismissed him from the witness stand."
p1144
sbag1
(g2
g3
Ntp1145
Rp1146
(dp1147
g7
S'without fault or error .'
p1148
sg9
g10
sg11
S'impeccable (adjective):'
p1149
sg13
S'He was impeccably dressed in the latest fashion without a single crease or stain.'
p1150
sbag1
(g2
g3
Ntp1151
Rp1152
(dp1153
g7
S'be a hindrance or obstacle to .'
p1154
sg9
g10
sg11
S'impede (verb):'
p1155
sg13
S'Since the police sergeant had to train the pair of new hires, progress in his own case was impeded.'
p1156
sbag1
(g2
g3
Ntp1157
Rp1158
(dp1159
g7
S'close in time; about to occur .'
p1160
sg9
g10
sg11
S'impending (adjective):'
p1161
sg13
S'The impending doom of our world has been a discussed and debated for 2000 years--maybe even longer.'
p1162
sbag1
(g2
g3
Ntp1163
Rp1164
(dp1165
g7
S'does not allow fluids to pass through .'
p1166
sg9
g10
sg11
S'impermeable (adjective):'
p1167
sg13
S'The sand bags placed on the river formed an impermeable barrier, protecting the town from flooding.'
p1168
sbag1
(g2
g3
Ntp1169
Rp1170
(dp1171
g7
S'convey a meaning; imply .'
p1172
sg9
g10
sg11
S'implicate (verb):'
p1173
sg13
S'By saying that some of the guests were uncomfortable, the manager implicated to the hotel staff that it needed to be more dilligent.'
p1174
sbag1
(g2
g3
Ntp1175
Rp1176
(dp1177
g7
S'to indicate in wrongdoing, usually a crime .'
p1178
sg9
g10
sg11
S'implicate (verb):'
p1179
sg13
S'The crime boss was implicated for a long list of crimes, ranging from murder to disturbing the peace.'
p1180
sbag1
(g2
g3
Ntp1181
Rp1182
(dp1183
g7
S'impossible to estimate or figure out .'
p1184
sg9
g10
sg11
S'imponderable (adjective):'
p1185
sg13
S'According to many lawmakers, the huge variety of factors affecting society make devising an efficient healthcare system an imponderable task.'
p1186
sbag1
(g2
g3
Ntp1187
Rp1188
(dp1189
g7
S'immune to attack; incapable of being tampered with .'
p1190
sg9
g10
sg11
S'impregnable (adjective):'
p1191
sg13
S'As a child, Amy would build pillow castles and pretend they were impregnable fotresses.'
p1192
sbag1
(g2
g3
Ntp1193
Rp1194
(dp1195
g7
S'happening by chance or unexpectedly or unintentionally .'
p1196
sg9
g10
sg11
S'inadvertent (adjective):'
p1197
sg13
S'Although Prohibition was rooted in noble ideals, the inadvertent and costly consequences of making alcohol illegal in the U.S. led its the repeal.'
p1198
sbag1
(g2
g3
Ntp1199
Rp1200
(dp1201
g7
S'without or deprived of the use of speech or words .'
p1202
sg9
g10
sg11
S'inarticulate (adjective):'
p1203
sg13
S'Although a brilliant economist, Professor Black was completely inarticulate, a terrible lecturer.'
p1204
sbag1
(g2
g3
Ntp1205
Rp1206
(dp1207
g7
S'make furious .'
p1208
sg9
g10
sg11
S'incense (verb):'
p1209
sg13
S'When Herb bought football tickets for a game on the day of their wedding anniversary, Jill was incensed. This word has other definitions but this is the most important one for the GRE'
p1210
sbag1
(g2
g3
Ntp1211
Rp1212
(dp1213
g7
S'uninterrupted in time and indefinitely long continuing .'
p1214
sg9
g10
sg11
S'incessant (adjective):'
p1215
sg13
S"I don't mind small children in brief doses, but I think the incessant exposure that their parents have to them would quickly wear me down."
p1216
sbag1
(g2
g3
Ntp1217
Rp1218
(dp1219
g7
S'(of weather) unpleasant, stormy .'
p1220
sg9
g10
sg11
S'inclement (adjective):'
p1221
sg13
S'After a week of inclement weather, we finally are able to go outside and enjoy the sun.'
p1222
sbag1
(g2
g3
Ntp1223
Rp1224
(dp1225
g7
S'used of persons or behavior; showing no mercy .'
p1226
sg9
g10
sg11
S'inclement (adjective):'
p1227
sg13
S'Marcus Aurelius, though a fair man, was inclement to Christians during his reign, persecuting them violently.'
p1228
sbag1
(g2
g3
Ntp1229
Rp1230
(dp1231
g7
S'necessary (for someone) as a duty or responsibility .'
p1232
sg9
g10
sg11
S'incumbent (adjective):'
p1233
sg13
S'Middle managers at times make important decisions, but real responsibility for the financial well-being of the corporation is ultimately incumbent on the CEO.'
p1234
sbag1
(g2
g3
Ntp1235
Rp1236
(dp1237
g7
S'to formally charge or accuse of wrong-doing .'
p1238
sg9
g10
sg11
S'indict (verb):'
p1239
sg13
S'The bankrobber was indicted on several major charges, including possession of a firearm.'
p1240
sbag1
(g2
g3
Ntp1241
Rp1242
(dp1243
g7
S'originating in a certain area .'
p1244
sg9
g10
sg11
S'indigenous (adjective):'
p1245
sg13
S"The plants and animals indigenous to Australia are notably different from those indigenous to the U.S--one look at a duckbill platypus and you know you're not dealing with an opossum."
p1246
sbag1
(g2
g3
Ntp1247
Rp1248
(dp1249
g7
S'feeling anger over a perceived injustice .'
p1250
sg9
g10
sg11
S'indignant (adjective):'
p1251
sg13
S'When the cyclist swerved into traffic, it forced the driver to brake and elicited an indignant shout of "Hey, punk, watch where you\'re going!"'
p1252
sbag1
(g2
g3
Ntp1253
Rp1254
(dp1255
g7
S'characterized by hard work and perseverance .'
p1256
sg9
g10
sg11
S'industrious (adjective):'
p1257
sg13
S'Pete was an industrious student, completing every assignment thoroughly and on time.'
p1258
sbag1
(g2
g3
Ntp1259
Rp1260
(dp1261
g7
S'extremely controversial, incendiary .'
p1262
sg9
g10
sg11
S'inflammable (adjective):'
p1263
sg13
S'It only takes one person to leave an inflammable comment on an Internet thread for that thread to blow up into pages upon pages of reader indignation.'
p1264
sbag1
(g2
g3
Ntp1265
Rp1266
(dp1267
g7
S'the power of creative imagination .'
p1268
sg9
g10
sg11
S'ingenuity (noun):'
p1269
sg13
S'Daedalus was famous for his ingenuity; he was able to fashion his son Icarus with a pair of wings, using wax to hold them together.'
p1270
sbag1
(g2
g3
Ntp1271
Rp1272
(dp1273
g7
S'a slight suggestion or vague understanding .'
p1274
sg9
g10
sg11
S'inkling (noun):'
p1275
sg13
S"Lynne speaks four Romance languages, but she doesn't have an inkling about how East Asian languages are structured."
p1276
sbag1
(g2
g3
Ntp1277
Rp1278
(dp1279
g7
S'dull and uninteresting .'
p1280
sg9
g10
sg11
S'insipid (adjective):'
p1281
sg13
S'The movie director was known for hiring beautiful actors in order to deflect attention away from the insipid scripts he would typically use.'
p1282
sbag1
(g2
g3
Ntp1283
Rp1284
(dp1285
g7
S"unable to pay one's bills; bankrupt ."
p1286
sg9
g10
sg11
S'insolvent (adjective):'
p1287
sg13
S'With credit card bills skyrocketing, a shockingly large number of Americans are truly insolvent.'
p1288
sbag1
(g2
g3
Ntp1289
Rp1290
(dp1291
g7
S'stopping and starting at irregular intervals .'
p1292
sg9
g10
sg11
S'intermittent (adjective):'
p1293
sg13
S'The intermittent thunder continued and the night was punctuated by cracks of lightning--a surreal sleepless night.'
p1294
sbag1
(g2
g3
Ntp1295
Rp1296
(dp1297
g7
S'to flood or overwhelm .'
p1298
sg9
g10
sg11
S'inundate (verb):'
p1299
sg13
S'The newsroom was inundated with false reports that only made it more difficult for the newscasters to provide an objective account of the bank robbery.'
p1300
sbag1
(g2
g3
Ntp1301
Rp1302
(dp1303
g7
S'quickly aroused to anger .'
p1304
sg9
g10
sg11
S'irascible (adjective):'
p1305
sg13
S"If Arthur's dog is not fed adequately, he becames highly irascible, even growling at his own shadow."
p1306
sbag1
(g2
g3
Ntp1307
Rp1308
(dp1309
g7
S'irritate or vex .'
p1310
sg9
g10
sg11
S'irk (verb):'
p1311
sg13
S'My little sister has a way of irking and annoying me like no other person.'
p1312
sbag1
(g2
g3
Ntp1313
Rp1314
(dp1315
g7
S'uncertain how to act or proceed .'
p1316
sg9
g10
sg11
S'irresolute (adjective):'
p1317
sg13
S'He stood irresolute at the split in the trail, not sure which route would lead back to the camp.'
p1318
sbag1
(g2
g3
Ntp1319
Rp1320
(dp1321
g7
S'a characteristic language of a particular group .'
p1322
sg9
g10
sg11
S'jargon (noun):'
p1323
sg13
S'To those with little training in medicine, the jargon of doctors can be very difficult to understand.'
p1324
sbag1
(g2
g3
Ntp1325
Rp1326
(dp1327
g7
S'characterized by jokes and good humor .'
p1328
sg9
g10
sg11
S'jocular (adjective):'
p1329
sg13
S"My uncle was always in a jocular mood at family gatherings, messing up people's hair and telling knock-knock jokes to anyone who would listen."
p1330
sbag1
(g2
g3
Ntp1331
Rp1332
(dp1333
g7
S'an aggressive takeover by a group (usually military) .'
p1334
sg9
g10
sg11
S'junta (noun):'
p1335
sg13
S'As dangerous of a threat as North Korea is, some analysts believe that were a junta suddenly to gain power, it could be even more unpredictable and bellicose than the current leadership'
p1336
sbag1
(g2
g3
Ntp1337
Rp1338
(dp1339
g7
S'characterized by effort to the point of exhaustion; especially physical effort .'
p1340
sg9
g10
sg11
S'laborious (adjective):'
p1341
sg13
S"The most laborious job I've had was working 20 hours a day as a fisherman in King Salmon, Alaska."
p1342
sbag1
(g2
g3
Ntp1343
Rp1344
(dp1345
g7
S'openly distrustful and unwilling to confide .'
p1346
sg9
g10
sg11
S'leery (adjective):'
p1347
sg13
S'Without checking his references and talking to previous employers, I am leery of hiring the candidate.'
p1348
sbag1
(g2
g3
Ntp1349
Rp1350
(dp1351
g7
S'lacking energy .'
p1352
sg9
g10
sg11
S'lethargic (adjective):'
p1353
sg13
S'Nothing can make a person more lethargic than a big turkey dinner.'
p1354
sbag1
(g2
g3
Ntp1355
Rp1356
(dp1357
g7
S'(of language) transparently clear; easily understandable .'
p1358
sg9
g10
sg11
S'lucid (adjective):'
p1359
sg13
S'Though Walters writes about physics and time travel, his writing is always lucid, so readers with little scientific training can understand difficult concepts.'
p1360
sbag1
(g2
g3
Ntp1361
Rp1362
(dp1363
g7
S'suggesting the horror of death and decay; gruesome .'
p1364
sg9
g10
sg11
S'macabre (adjective):'
p1365
sg13
S'Edgar Allen Poe was considered the master of the macabre; his stories vividly describe the moment leading up to--and often those moments after--a grisly death.'
p1366
sbag1
(g2
g3
Ntp1367
Rp1368
(dp1369
g7
S'a disease or sickness .'
p1370
sg9
g10
sg11
S'malady (noun):'
p1371
sg13
S'The town was struck by a malady throughout the winter that left most people sick in bed for two weeks.'
p1372
sbag1
(g2
g3
Ntp1373
Rp1374
(dp1375
g7
S'wishing or appearing to wish evil to others; arising from intense ill will or hatred .'
p1376
sg9
g10
sg11
S'malevolent (adjective):'
p1377
sg13
S'Villians are known for their malevolent nature, oftentimes inflicting cruetly on others just for enjoyment.'
p1378
sbag1
(g2
g3
Ntp1379
Rp1380
(dp1381
g7
S'capable of being shaped or bent or drawn out .'
p1382
sg9
g10
sg11
S'malleable (adjective):'
p1383
sg13
S'The clay became malleable and easy to work with after a little water was added.'
p1384
sbag1
(g2
g3
Ntp1385
Rp1386
(dp1387
g7
S'easily influenced .'
p1388
sg9
g10
sg11
S'malleable (adjective):'
p1389
sg13
S'My little brother is so malleable that I can convince him to sneak cookies from the cupboard for me.'
p1390
sbag1
(g2
g3
Ntp1391
Rp1392
(dp1393
g7
S'having an unpleasant smell .'
p1394
sg9
g10
sg11
S'malodorous (adjective):'
p1395
sg13
S'Some thermally active fountains spew sulfur fumes--the air around them is sometimes so malodorous that many have to plug their noses.'
p1396
sbag1
(g2
g3
Ntp1397
Rp1398
(dp1399
g7
S'suggesting war or military life .'
p1400
sg9
g10
sg11
S'martial (adjective):'
p1401
sg13
S'Americans tend to remember Abraham Lincoln as kindly and wise, not at all martial, despite the fact that he was involved in the fiercest war America has even fought.'
p1402
sbag1
(g2
g3
Ntp1403
Rp1404
(dp1405
g7
S'a short saying expressing a general truth .'
p1406
sg9
g10
sg11
S'maxim (noun):'
p1407
sg13
S'Johnson initially suggests that the secret to business can be summarized in a single maxim but then requires a 300-page book to explain exactly what he means.'
p1408
sbag1
(g2
g3
Ntp1409
Rp1410
(dp1411
g7
S'to wander aimlessly .'
p1412
sg9
g10
sg11
S'meander (verb):'
p1413
sg13
S'A casual observer might have thought that Peter was meandering through the city, but that day he was actually seeking out those places where he and his long lost love had once visited.'
p1414
sbag1
(g2
g3
Ntp1415
Rp1416
(dp1417
g7
S'a deep, long-lasting sadness .'
p1418
sg9
g10
sg11
S'melancholy (noun):'
p1419
sg13
S"Hamlet is a figure of tremendous melancholy: he doesn't have a truly cheerful scene throughout the entire play."
p1420
sbag1
(g2
g3
Ntp1421
Rp1422
(dp1423
g7
S'a wild, confusing fight or struggle .'
p1424
sg9
g10
sg11
S'melee (noun):'
p1425
sg13
S'After enduring daily taunts about my name, I became enraged and pummeled the schoolyard bully and his sycophantic friends in a brutal melee.'
p1426
sbag1
(g2
g3
Ntp1427
Rp1428
(dp1429
g7
S'to spellbind or enthrall .'
p1430
sg9
g10
sg11
S'mesmerize (verb):'
p1431
sg13
S'The plot and the characters were so well developed that many viewers were mesmerized, unable to move their eyes from the screen for even a single second.'
p1432
sbag1
(g2
g3
Ntp1433
Rp1434
(dp1435
g7
S'a hater of mankind .'
p1436
sg9
g10
sg11
S'misanthrope (noun):'
p1437
sg13
S'Hamilton had been deceived so many times in his life that he hid behind the gruff exterior of a misanthrope, lambasting perfect strangers for no apparent reason.'
p1438
sbag1
(g2
g3
Ntp1439
Rp1440
(dp1441
g7
S'a person who breaks the law .'
p1442
sg9
g10
sg11
S'miscreant (noun):'
p1443
sg13
S'Come back you miscreant! yelled the woman who just had her purse stollen.'
p1444
sbag1
(g2
g3
Ntp1445
Rp1446
(dp1447
g7
S"a person who doesn't like to spend money (because they are greedy) ."
p1448
sg9
g10
sg11
S'miser (noun):'
p1449
sg13
S'Monte was no miser, but was simply frugal, wisely spending the little that he earned.'
p1450
sbag1
(g2
g3
Ntp1451
Rp1452
(dp1453
g7
S'a person who dislikes women in particular .'
p1454
sg9
g10
sg11
S'misogynist (noun):'
p1455
sg13
S'Many have accused Hemingway of being a quiet misogynist, but recently unearthed letters argue against this belief.'
p1456
sbag1
(g2
g3
Ntp1457
Rp1458
(dp1459
g7
S'significant and important value .'
p1460
sg9
g10
sg11
S'moment (noun):'
p1461
sg13
S"Despite the initial hullabaloo, the play was of no great moment in Hampton's writing career, and within a few years the public quickly forgot his foray into theater arts. This word has other definitions but this is the most important one for the GRE"
p1462
sbag1
(g2
g3
Ntp1463
Rp1464
(dp1465
g7
S'open to argument or debate; undecidable in a meaningless or irrelevant way .'
p1466
sg9
g10
sg11
S'moot (adjective):'
p1467
sg13
S'Since the Board just terminated Steve as the CEO, what the finance committe might have thought of his proposed marketing plan for next year is now a moot point. This word has other definitions but this is the most important one for the GRE'
p1468
sbag1
(g2
g3
Ntp1469
Rp1470
(dp1471
g7
S'ill-tempered and not inclined to talk; gloomy .'
p1472
sg9
g10
sg11
S'morose (adjective):'
p1473
sg13
S'After Stanley found out he was no longer able to go on vacation with his friends, he sat in his room morosely.'
p1474
sbag1
(g2
g3
Ntp1475
Rp1476
(dp1477
g7
g168
sg9
g10
sg11
S'morph (verb):'
p1478
sg13
S"To undergo dramatic change in a seamless and barely noticeable fashion. The earnestness of the daytime talk shows of the 1970's has morphed into something far more sensational and vulgar: today guests actually standup and threaten to take swings at one another."
p1479
sbag1
(g2
g3
Ntp1480
Rp1481
(dp1482
g7
S'softened, subdued .'
p1483
sg9
g10
sg11
S'muted (adjective):'
p1484
sg13
S'Helen preferred muted earth colors, such as green and brown, to the bright pinks and red her sister liked. This word has other definitions but this is the most important one for the GRE'
p1485
sbag1
(g2
g3
Ntp1486
Rp1487
(dp1488
g7
S'stubbornly persistent in changing an opinion or action .'
p1489
sg9
g10
sg11
S'obdurate (adjective):'
p1490
sg13
S'No number of pleas and bribes would get him to change his obdurate attitude.'
p1491
sbag1
(g2
g3
Ntp1492
Rp1493
(dp1494
g7
S'showing a cheerful willingness to do favors for others .'
p1495
sg9
g10
sg11
S'obliging (adjective):'
p1496
sg13
S'Even after all his success, I found him to be accommodating and obliging, sharing with me his "secret tips" on how to gain wealth and make friends.'
p1497
sbag1
(g2
g3
Ntp1498
Rp1499
(dp1500
g7
S'resistant to guidance or discipline; stubbornly persistent .'
p1501
sg9
g10
sg11
S'obstinate (adjective):'
p1502
sg13
S'The coach suggested improvements Sarah might make on the balance beam, but she remained obstinate, unwilling to modify any of the habits that made her successful in the past.'
p1503
sbag1
(g2
g3
Ntp1504
Rp1505
(dp1506
g7
S'marked by elaborate rhetoric and elaborated with decorative details .'
p1507
sg9
g10
sg11
S'ornate (adjective):'
p1508
sg13
S'The ornate Victorian and Edwardian homes spread throughout San Francisco are my favorite part of the city.'
p1509
sbag1
(g2
g3
Ntp1510
Rp1511
(dp1512
g7
S'seemingly contradictory but nonetheless possibly true .'
p1513
sg9
g10
sg11
S'paradoxical (adjective):'
p1514
sg13
S'That light could be both a particle and a wave seems paradoxical, but nonetheless, it is true.'
p1515
sbag1
(g2
g3
Ntp1516
Rp1517
(dp1518
g7
S'relating to the countryside in a pleasant sense .'
p1519
sg9
g10
sg11
S'pastoral (adjective):'
p1520
sg13
S"Those who imagine America's countryside as a pastoral region are often disappointed to learn that much of rural U.S. is filled with cornfields extending as far as the eye can see."
p1521
sbag1
(g2
g3
Ntp1522
Rp1523
(dp1524
g7
S'treat condescendingly .'
p1525
sg9
g10
sg11
S'patronize (verb):'
p1526
sg13
S'She says she genuinely wanted to help me, but instead she patronized me, constantly pointing out how I was inferior to her. This word has other definitions but this is the most important one for the GRE'
p1527
sbag1
(g2
g3
Ntp1528
Rp1529
(dp1530
g7
S'a lack of something .'
p1531
sg9
g10
sg11
S'paucity (noun):'
p1532
sg13
S'There is a paucity of jobs hiring today that require menial skills, since most jobs have either been automated or outsourced.'
p1533
sbag1
(g2
g3
Ntp1534
Rp1535
(dp1536
g7
S'easily irritated or annoyed .'
p1537
sg9
g10
sg11
S'peevish (adjective):'
p1538
sg13
S'Our office manager is peevish, so the rest of us tip-toe around him, hoping not to set off another one of his fits.'
p1539
sbag1
(g2
g3
Ntp1540
Rp1541
(dp1542
g7
S'lasting an indefinitely long time; eternal; everlasting .'
p1543
sg9
g10
sg11
S'perennial (adjective):'
p1544
sg13
S'Even at the old-timers games, Stan Musial would get the loudest cheer: he was a perennial favorite of the fans there. This word has other definitions but this is the most important one for the GRE'
p1545
sbag1
(g2
g3
Ntp1546
Rp1547
(dp1548
g7
S'cause to continue .'
p1549
sg9
g10
sg11
S'perpetuate (verb):'
p1550
sg13
S'If you do not let him do things for himself, you are merely perpetuating bad habits that will be even harder to break in the future.'
p1551
sbag1
(g2
g3
Ntp1552
Rp1553
(dp1554
g7
S'a right reserved exclusively by a particular person or group (especially a hereditary or official right) .'
p1555
sg9
g10
sg11
S'perquisite (noun):'
p1556
sg13
S'Even as the dishwasher at the French restaurant, Josh quickly learned that he had the perquisite of being able to eat terrific food for half the price diners would pay.'
p1557
sbag1
(g2
g3
Ntp1558
Rp1559
(dp1560
g7
S'having precise or logical relevance to the matter at hand .'
p1561
sg9
g10
sg11
S'pertinent (adjective):'
p1562
sg13
S'While the salaries of the players might draw attention in the media, such monetary figures are not pertinent to the question of who plays the best on the field.'
p1563
sbag1
(g2
g3
Ntp1564
Rp1565
(dp1566
g7
S'disturb in mind or cause to be worried or alarmed .'
p1567
sg9
g10
sg11
S'perturb (verb):'
p1568
sg13
S'Now that Henry is recovering from a major illnesses, he no longer lets the little trivialities, such as late mail, perturb him.'
p1569
sbag1
(g2
g3
Ntp1570
Rp1571
(dp1572
g7
S'to read very carefully .'
p1573
sg9
g10
sg11
S'peruse (verb):'
p1574
sg13
S'Instead of perusing important documents, people all too often rush to the bottom of the page and plaster their signatures at the bottom.'
p1575
sbag1
(g2
g3
Ntp1576
Rp1577
(dp1578
g7
S'to yearn for .'
p1579
sg9
g10
sg11
S'pine (verb):'
p1580
sg13
S'Standing forlornly by the window, she pined for her lost love. This word has other definitions but this is the most important one for the GRE'
p1581
sbag1
(g2
g3
Ntp1582
Rp1583
(dp1584
g7
S'the highest point .'
p1585
sg9
g10
sg11
S'pinnacle (noun):'
p1586
sg13
S'At its pinnacle, the Roman Empire extended across most of the landmass of Eurasia, a feat not paralleled to the rise of the British Empire in the 18th and 19th century.'
p1587
sbag1
(g2
g3
Ntp1588
Rp1589
(dp1590
g7
S'having an agreeably pungent taste .'
p1591
sg9
g10
sg11
S'piquant (adjective):'
p1592
sg13
S'The chef, with a mere flick of the salt shaker, turned the bland tomato soup into a piquant meal.'
p1593
sbag1
(g2
g3
Ntp1594
Rp1595
(dp1596
g7
S'concise and full of meaning .'
p1597
sg9
g10
sg11
S'pithy (adjective):'
p1598
sg13
S'I enjoy reading the Daodejing for its pithy and insightful prose; it always gives me something to think about.'
p1599
sbag1
(g2
g3
Ntp1600
Rp1601
(dp1602
g7
S'a small amount (of money) .'
p1603
sg9
g10
sg11
S'pittance (noun):'
p1604
sg13
S"Vinny's uncle beamed smugly about how he'd offered his nephew fifty dollars for his Harvard tuition; even twice the amount would have been a mere pittance."
p1605
sbag1
(g2
g3
Ntp1606
Rp1607
(dp1608
g7
S'not easily irritated .'
p1609
sg9
g10
sg11
S'placid (adjective):'
p1610
sg13
S'Doug is normally placid, so we were all shocked to see him yelling at the television when the Mets lost the game.'
p1611
sbag1
(g2
g3
Ntp1612
Rp1613
(dp1614
g7
S'(of movement) slow and laborious .'
p1615
sg9
g10
sg11
S'plodding (adjective):'
p1616
sg13
S'Charlie may seem to run at a plodding pace, but he is an ultramarathoner, meaning he runs distances of up to 100 miles, and can run for ten hours at a stretch.'
p1617
sbag1
(g2
g3
Ntp1618
Rp1619
(dp1620
g7
S"a clever plan to turn a situation to one's advantage ."
p1621
sg9
g10
sg11
S'ploy (noun):'
p1622
sg13
S'Dennis arranged an elaborate ploy, involving 14 different people lying for him in different situations, so that it could appear that he was meeting Mary completely by chance at the wedding reception.'
p1623
sbag1
(g2
g3
Ntp1624
Rp1625
(dp1626
g7
S'an informal meeting or discussion .'
p1627
sg9
g10
sg11
S'powwow (noun):'
p1628
sg13
S'Before the team takes the field, the coach always calls for a powwow so that he can make sure all the players are mentally in the right place.'
p1629
sbag1
(g2
g3
Ntp1630
Rp1631
(dp1632
g7
S'fraught with danger .'
p1633
sg9
g10
sg11
S'precarious (adjective):'
p1634
sg13
S'People smoke to relax and forget their cares, but ironically, in terms of health risks, smoking is far more precarious than either mountain-climbing or skydiving.'
p1635
sbag1
(g2
g3
Ntp1636
Rp1637
(dp1638
g7
S'an example that is used to justify similar occurrences at a later time .'
p1639
sg9
g10
sg11
S'precedent (noun):'
p1640
sg13
S'The principal explained that even though one student had done modelling work outside of school, the outfits that student wore in those photographs in no way established a precedent for what could be worn at school dances.'
p1641
sbag1
(g2
g3
Ntp1642
Rp1643
(dp1644
g7
S'take the place of or have precedence over .'
p1645
sg9
g10
sg11
S'preempt (verb):'
p1646
sg13
S'A governmental warning about an imminent terrorist attack would preempt ordinary network programming on television.'
p1647
sbag1
(g2
g3
Ntp1648
Rp1649
(dp1650
g7
S'done before someone else can do it .'
p1651
sg9
g10
sg11
S'preemptive (adjective):'
p1652
sg13
S'Just as Martha was about to take the only cookie left on the table, Noah preemptively swiped it.'
p1653
sbag1
(g2
g3
Ntp1654
Rp1655
(dp1656
g7
S'an assumption that is taken for granted .'
p1657
sg9
g10
sg11
S'presumption (noun):'
p1658
sg13
S"When Mr. Baker found out the family car was gone, he acted under the presumption that his rebellious son had taken the car, calling his son's phone and yelling at him; only later did Mr. Baker realize that Mrs. Baker had simply gone out to get her nails d"
p1659
sbag1
(g2
g3
Ntp1660
Rp1661
(dp1662
g7
S'audacious (even arrogant) behavior that you have no right to .'
p1663
sg9
g10
sg11
S'presumption (noun):'
p1664
sg13
S'The new neighbor quickly gained a reptuation for her presumption; she had invited herself to several of the neighbors homes, often stopping over at inopportune times and asking for a drink.'
p1665
sbag1
(g2
g3
Ntp1666
Rp1667
(dp1668
g7
S'excessively forward .'
p1669
sg9
g10
sg11
S'presumptuous (adjective):'
p1670
sg13
S'Many felt that Barney was presumptuous in moving into the large office before the management even made any official announcement of his promotion.'
p1671
sbag1
(g2
g3
Ntp1672
Rp1673
(dp1674
g7
S'be widespread in a particular area at a particular time; be current: .'
p1675
sg9
g10
sg11
S'prevail (verb):'
p1676
sg13
S'During the labor negotiations, an air of hostility prevailed in the office.'
p1677
sbag1
(g2
g3
Ntp1678
Rp1679
(dp1680
g7
S'prove superior .'
p1681
sg9
g10
sg11
S'prevail (verb):'
p1682
sg13
S'Before the cricket match, Australia was heavily favored, but India prevailed.'
p1683
sbag1
(g2
g3
Ntp1684
Rp1685
(dp1686
g7
g168
sg9
g10
sg11
S'pristine (adjective):'
p1687
sg13
S'Unspoiled, untouched (usu. of nature) The glacial lake was pristine and we filled our canteens to drink deeply.'
p1688
sbag1
(g2
g3
Ntp1689
Rp1690
(dp1691
g7
g168
sg9
g10
sg11
S'pristine (adjective):'
p1692
sg13
S'Immaculately clean and unused Drill sergeants are known for demanding pristine cabinets, uniforms, and beds, and often make new recruits clean and clean and clean until they meet the expected high standards.'
p1693
sbag1
(g2
g3
Ntp1694
Rp1695
(dp1696
g7
S'plentiful; pouring out in abundance .'
p1697
sg9
g10
sg11
S'profuse (adjective):'
p1698
sg13
S'During mile 20 of the Hawaii Marathon, Dwayne was sweating so profusely that he stopped to take off his shirt, and ran the remaining six miles wearing nothing more than skimpy shorts. Note:'
p1699
sbag1
(g2
g3
Ntp1700
Rp1701
(dp1702
g7
S'the property of being extremely abundant .'
p1703
sg9
g10
sg11
S'profusion (noun):'
p1704
sg13
S'When Maria reported that she had been visited by Jesus Christ and had proof, a profusion of reporters and journalists descended on the town.'
p1705
sbag1
(g2
g3
Ntp1706
Rp1707
(dp1708
g7
S'a person who pleads for a cause or propounds an idea .'
p1709
sg9
g10
sg11
S'proponent (noun):'
p1710
sg13
S'Ironically, the leading proponent of Flat-Earth Theory flies all over the world in an effort to win more adherents.'
p1711
sbag1
(g2
g3
Ntp1712
Rp1713
(dp1714
g7
S'under terms not final or fully worked out or agreed upon .'
p1715
sg9
g10
sg11
S'provisional (adjective):'
p1716
sg13
S'Until the corporate office hands down a definitive decision on use of the extra offices, we will share their use in a provisional arrangement.'
p1717
sbag1
(g2
g3
Ntp1718
Rp1719
(dp1720
g7
S'eager to fight or argue; verbally combative .'
p1721
sg9
g10
sg11
S'pugnacious (adjective):'
p1722
sg13
S'The comedian told one flat joke after another, and when the audience started booing, he pugnaciously back at them, "Hey, you think this is easy -- why don"t you buffoons give it a shot?"'
p1723
sbag1
(g2
g3
Ntp1724
Rp1725
(dp1726
g7
S'uneasiness about the fitness of an action .'
p1727
sg9
g10
sg11
S'qualm (noun):'
p1728
sg13
S"While he could articulate no clear reason why Harkner's plan would fail, he neverless felt qualms about committing any resources to it."
p1729
sbag1
(g2
g3
Ntp1730
Rp1731
(dp1732
g7
S'state of uncertainty or perplexity especially as requiring a choice between equally unfavorable options .'
p1733
sg9
g10
sg11
S'quandary (noun):'
p1734
sg13
S"Steve certainly is in a quandary: if he doesn't call Elaine, she will blame him for everything, but if he does call her, the evidence of where he currently is could cost him his job."
p1735
sbag1
(g2
g3
Ntp1736
Rp1737
(dp1738
g7
S'a witty saying or remark .'
p1739
sg9
g10
sg11
S'quip (noun):'
p1740
sg13
S'In one of the most famous quips about classical music, Mark Twain said: "Wagner\'s music is better than it sounds."'
p1741
sbag1
(g2
g3
Ntp1742
Rp1743
(dp1744
g7
S'marked by a carefree unconventionality or disreputableness .'
p1745
sg9
g10
sg11
S'raffish (adjective):'
p1746
sg13
S'The men found him raffish, but the women adored his smart clothes and casual attitude.'
p1747
sbag1
(g2
g3
Ntp1748
Rp1749
(dp1750
g7
S'a large number of something .'
p1751
sg9
g10
sg11
S'raft (noun):'
p1752
sg13
S'Despite a raft of city ordinances passed by an overzealous council, noise pollution continued unabated in the megalopolis. This word has other definitions but this is the most important one for the GRE'
p1753
sbag1
(g2
g3
Ntp1754
Rp1755
(dp1756
g7
S'marked by a carefree unconventionality or disreputableness .'
p1757
sg9
g10
sg11
S'rakish (adjective):'
p1758
sg13
S'As soon as he arrived in the city, the rakish young man bought some drugs and headed straight for the seedy parts of town.'
p1759
sbag1
(g2
g3
Ntp1760
Rp1761
(dp1762
g7
S'gnaw into; make resentful or angry .'
p1763
sg9
g10
sg11
S'rankle (verb):'
p1764
sg13
S'His constant whistling would rankle her, sometimes causing her to leave in a huff.'
p1765
sbag1
(g2
g3
Ntp1766
Rp1767
(dp1768
g7
S'marked by defiant disregard for danger or consequences; imprudently incurring risk .'
p1769
sg9
g10
sg11
S'rash (adjective):'
p1770
sg13
S'Although Bruce was able to make the delivery in time with a nightime motorcycle ride in the rain, Susan criticized his actions as rash. This word has other definitions but this is the most important one for the GRE'
p1771
sbag1
(g2
g3
Ntp1772
Rp1773
(dp1774
g7
S'an act of making something right .'
p1775
sg9
g10
sg11
S'redress (noun):'
p1776
sg13
S"Barry forgot his wife's birthday two years in a row, and was only able to redress his oversight by surprising his wife with a trip to Tahiti. This word has other definitions but this is the most important one for the GRE"
p1777
sbag1
(g2
g3
Ntp1778
Rp1779
(dp1780
g7
S'assign to a lower position .'
p1781
sg9
g10
sg11
S'relegate (verb):'
p1782
sg13
S'When Dexter was unable to fulfill his basic duties, instead of firing him, the boss relegated him to kitchen cleanup.'
p1783
sbag1
(g2
g3
Ntp1784
Rp1785
(dp1786
g7
S"to be negligent in one's duty ."
p1787
sg9
g10
sg11
S'remiss (adjective):'
p1788
sg13
S'Remiss in his duty to keep the school functioning efficiently, the principle was relieved of his position after only three months.'
p1789
sbag1
(g2
g3
Ntp1790
Rp1791
(dp1792
g7
S'fail to fulfill a promise or obligation .'
p1793
sg9
g10
sg11
S'renege (verb):'
p1794
sg13
S'We will no longer work with that vendor since it has reneged on nearly every agreement.'
p1795
sbag1
(g2
g3
Ntp1796
Rp1797
(dp1798
g7
S'completely stocked or furnished with something .'
p1799
sg9
g10
sg11
S'replete (adjective):'
p1800
sg13
S'Only weeks after the hurricane made landfall, the local supermarket shelves were replete with goods, so quick was the disaster relief response.'
p1801
sbag1
(g2
g3
Ntp1802
Rp1803
(dp1804
g7
S'a person who is disapproved of .'
p1805
sg9
g10
sg11
S'reprobate (noun):'
p1806
sg13
S'Those old reprobates drinking all day down by the river--they are not going to amount to much.'
p1807
sbag1
(g2
g3
Ntp1808
Rp1809
(dp1810
g7
S'an unstated doubt that prevents you from accepting something wholeheartedly .'
p1811
sg9
g10
sg11
S'reservation (noun):'
p1812
sg13
S'I was initially excited by the idea of a trip to Washington, D.C. but now that I have read about the high crime statistics there, I have some reservations. This word has other definitions but this is the most important one for the GRE'
p1813
sbag1
(g2
g3
Ntp1814
Rp1815
(dp1816
g7
S"the acceptance of something unpleasant that can't be avoided ."
p1817
sg9
g10
sg11
S'resignation (noun):'
p1818
sg13
S'Since Jack could not think of a convincing reason why he had to miss the seminar, he attended it with a sense of resignation. This word has other definitions but this is the most important one for the GRE'
p1819
sbag1
(g2
g3
Ntp1820
Rp1821
(dp1822
g7
S'reach a conclusion after a discussion or deliberation .'
p1823
sg9
g10
sg11
S'resolve (verb):'
p1824
sg13
S"After much thought, Ted resolved not to travel abroad this summer because he didn't have much money in his bank account. This word has other definitions but this is the most important one for the GRE"
p1825
sbag1
(g2
g3
Ntp1826
Rp1827
(dp1828
g7
S'a pause from doing something (as work) .'
p1829
sg9
g10
sg11
S'respite (noun):'
p1830
sg13
S'Every afternoon, the small company has a respite in which workers play foosball or board games.'
p1831
sbag1
(g2
g3
Ntp1832
Rp1833
(dp1834
g7
S'to be shy, and to be inclined to retract from company .'
p1835
sg9
g10
sg11
S'retiring (adjective):'
p1836
sg13
S'Nelson was always the first to leave soirees--rather than mill about with "fashionable" folk, he was retiring, and preferred the solitude of his garret.'
p1837
sbag1
(g2
g3
Ntp1838
Rp1839
(dp1840
g7
S'pull inward or towards a center; formally reject or disavow a formerly held belief, usually under pressure .'
p1841
sg9
g10
sg11
S'retract (verb):'
p1842
sg13
S'Email is wonderfully efficient, but once something awkward or damaging has been sent, there is no way to retract it.'
p1843
sbag1
(g2
g3
Ntp1844
Rp1845
(dp1846
g7
S'cause annoyance in; disturb, especially by minor irritations .'
p1847
sg9
g10
sg11
S'rile (verb):'
p1848
sg13
S'Dan is usually calm and balanced, but it takes only one intense glare from Sabrina to rile him.'
p1849
sbag1
(g2
g3
Ntp1850
Rp1851
(dp1852
g7
S'sturdy and strong in form, constitution, or construction .'
p1853
sg9
g10
sg11
S'robust (adjective):'
p1854
sg13
S'Chris preferred bland and mild beers, but Bhavin preferred a beer with more robust flavor.'
p1855
sbag1
(g2
g3
Ntp1856
Rp1857
(dp1858
g7
S'making a show of being pious; holier-than-thou .'
p1859
sg9
g10
sg11
S'sanctimonious (adjective):'
p1860
sg13
S'Even during the quiet sanctity of evening prayer, she held her chin high, a sanctimonious sneer forming on her face as she eyed those who were attending church for the first time.'
p1861
sbag1
(g2
g3
Ntp1862
Rp1863
(dp1864
g7
S'cheerful; optimistic .'
p1865
sg9
g10
sg11
S'sanguine (adjective):'
p1866
sg13
S'With the prospect of having to learn 3,000 words during the course of the summer, Paul was anything but sanguine.'
p1867
sbag1
(g2
g3
Ntp1868
Rp1869
(dp1870
g7
S'a perceptive understanding .'
p1871
sg9
g10
sg11
S'savvy (noun):'
p1872
sg13
S'Although a great CEO, he did not have the political savvy to win the election.'
p1873
sbag1
(g2
g3
Ntp1874
Rp1875
(dp1876
g7
S'get the meaning of something .'
p1877
sg9
g10
sg11
S'savvy (verb):'
p1878
sg13
S'The student savvies the meaning of astrophysics with little effort.'
p1879
sbag1
(g2
g3
Ntp1880
Rp1881
(dp1882
g7
S'well-informed or perceptive .'
p1883
sg9
g10
sg11
S'savvy (adjective):'
p1884
sg13
S'With his savvy business partner, the company was able to turn a profit within a year.'
p1885
sbag1
(g2
g3
Ntp1886
Rp1887
(dp1888
g7
S'describes someone who is brilliant and lively .'
p1889
sg9
g10
sg11
S'scintillating (adjective):'
p1890
sg13
S'Richard Feynman was renowned for his scintillating lectures--the arcana of quantum physics was made lucid as he wrote animatedly on the chalkboard.'
p1891
sbag1
(g2
g3
Ntp1892
Rp1893
(dp1894
g7
S'an abusive rant (often tedious) .'
p1895
sg9
g10
sg11
S'screed (noun):'
p1896
sg13
S"Joey had difficulty hanging out with his former best friend Perry, who, during his entire cup of coffee, enumerated all of the government's deficiencies--only to break ranks and launch into some screed against big business."
p1897
sbag1
(g2
g3
Ntp1898
Rp1899
(dp1900
g7
S'effusively or insincerely emotional, especially in art, music, and literature .'
p1901
sg9
g10
sg11
S'sentimental (adjective):'
p1902
sg13
S"I don't like romanticism for the same reason I don't like melodramatic acting and soap operas--overly sentimental."
p1903
sbag1
(g2
g3
Ntp1904
Rp1905
(dp1906
g7
S'the instance in which an accidental, fortunate discovery is made .'
p1907
sg9
g10
sg11
S'serendipity (noun):'
p1908
sg13
S'The invention of the 3M Post It Note was serendipitous, because the scientist who had come up with the idea was looking for a strong adhesive; the weak adhesive he came up with was perfect for holding a piece of paper in place but made it very easy for so'
p1909
sbag1
(g2
g3
Ntp1910
Rp1911
(dp1912
g7
S'calm and peaceful .'
p1913
sg9
g10
sg11
S'serene (adjective):'
p1914
sg13
S"I'd never seen him so serene; usually, he was a knot of stress and anxiety from hours of trading on the stock exchange."
p1915
sbag1
(g2
g3
Ntp1916
Rp1917
(dp1918
g7
S'carelessly and hastily put together .'
p1919
sg9
g10
sg11
S'slapdash (adjective):'
p1920
sg13
S'The office building had been constructed in a slapdash manner, so it did not surprise officials when, during a small earthquake, a large crack emerged on the fa\xc3\x83\xc2\xa7ade of the building.'
p1921
sbag1
(g2
g3
Ntp1922
Rp1923
(dp1924
g7
S'a slight or superficial understanding of a subject; a small amount of something .'
p1925
sg9
g10
sg11
S'smattering (noun):'
p1926
sg13
S'I know only a smattering of German, but Helen is able to read German newspapers and converse with natives.'
p1927
sbag1
(g2
g3
Ntp1928
Rp1929
(dp1930
g7
S'marked by excessive complacency or self-satisfaction .'
p1931
sg9
g10
sg11
S'smug (adjective):'
p1932
sg13
S'When Phil was dating the model, he had a smug attitude that annoyed his buddies.'
p1933
sbag1
(g2
g3
Ntp1934
Rp1935
(dp1936
g7
S'expressive of contempt; derogatory or mocking in an indirect way .'
p1937
sg9
g10
sg11
S'snide (adjective):'
p1938
sg13
S"The chairman interpreted Taylor's question about promotions as a snide remark, but in all innocence Taylor was trying to figure out the company's process."
p1939
sbag1
(g2
g3
Ntp1940
Rp1941
(dp1942
g7
S'refuse to acknowledge; reject outright and bluntly .'
p1943
sg9
g10
sg11
S'snub (verb):'
p1944
sg13
S'Wheeler was completely qualified for the committee, but the board snubbed him, choosing an obviously lesser qualified candidate instead.'
p1945
sbag1
(g2
g3
Ntp1946
Rp1947
(dp1948
g7
S'involving ignoble actions and motives; arousing moral distaste and contempt; foul and run-down and repulsive .'
p1949
sg9
g10
sg11
S'sordid (adjective):'
p1950
sg13
S'The nightly news simply announced that the senator had had an affair, but the tabloid published all the sordid details of the interaction. This word has other definitions but this is the most important one for the GRE'
p1951
sbag1
(g2
g3
Ntp1952
Rp1953
(dp1954
g7
S'one who spends money extravagantly .'
p1955
sg9
g10
sg11
S'spendthrift (noun):'
p1956
sg13
S'Taking weekly trips to Vegas, Megan was a spendthrift whose excesses eventually caught up to her.'
p1957
sbag1
(g2
g3
Ntp1958
Rp1959
(dp1960
g7
S'reject with contempt .'
p1961
sg9
g10
sg11
S'spurn (verb):'
p1962
sg13
S'She spurned all his flattery and proposals, and so he walked off embarrassed and sad.'
p1963
sbag1
(g2
g3
Ntp1964
Rp1965
(dp1966
g7
S'spend thoughtlessly; waste time, money, or an opportunity .'
p1967
sg9
g10
sg11
S'squander (verb):'
p1968
sg13
S'Fearing his money would be squandered by his family, he gave all of it to charity when he died.'
p1969
sbag1
(g2
g3
Ntp1970
Rp1971
(dp1972
g7
S'characterized by dignity and propriety .'
p1973
sg9
g10
sg11
S'staid (adjective):'
p1974
sg13
S'Frank came from a staid enviroment, so he was shocked that his college rooommate sold narcotics.'
p1975
sbag1
(g2
g3
Ntp1976
Rp1977
(dp1978
g7
S'to suddenly move in a particular direction .'
p1979
sg9
g10
sg11
S'start (verb):'
p1980
sg13
S'All alone in the mansion, Henrietta started when she heard a sound. This word has other definitions but this is the most important one for the GRE'
p1981
sbag1
(g2
g3
Ntp1982
Rp1983
(dp1984
g7
S'marked by firm determination or resolution; not shakable .'
p1985
sg9
g10
sg11
S'steadfast (adjective):'
p1986
sg13
S'A good captain needs to be steadfast, continuing to hold the wheel and stay the course even during the most violent storm.'
p1987
sbag1
(g2
g3
Ntp1988
Rp1989
(dp1990
g7
S'to hold back or limit the flow or growth of something .'
p1991
sg9
g10
sg11
S'stem (verb):'
p1992
sg13
S'To stem the tide of applications, the prestigious Ivy requires that each applicant score at least 330 on the Revised GRE. This word has other definitions but this is the most important one for the GRE'
p1993
sbag1
(g2
g3
Ntp1994
Rp1995
(dp1996
g7
S'a regular allowance (of money) .'
p1997
sg9
g10
sg11
S'stipend (noun):'
p1998
sg13
S'He was hoping for a monthly allowance loan from the government, but after no such stipend was forthcoming he realized he would have to seek other means of paying for his college tuition.'
p1999
sbag1
(g2
g3
Ntp2000
Rp2001
(dp2002
g7
S'having or revealing little emotion or sensibility; not easily aroused or excited .'
p2003
sg9
g10
sg11
S'stolid (adjective):'
p2004
sg13
S'Elephants may appear stolid to casual observers, but they actually have passionate emotional lives.'
p2005
sbag1
(g2
g3
Ntp2006
Rp2007
(dp2008
g7
S'hinder or prevent the progress or accomplishment of .'
p2009
sg9
g10
sg11
S'stymie (verb):'
p2010
sg13
S'The engineers found their plans stymied at every turn and were ultimately able to make amlost no progress on the project.'
p2011
sbag1
(g2
g3
Ntp2012
Rp2013
(dp2014
g7
S'the peak or highest point .'
p2015
sg9
g10
sg11
S'summit (noun):'
p2016
sg13
S'After hiking for two days, the climbers finally reached the summit of Mount Kilimanjaro.'
p2017
sbag1
(g2
g3
Ntp2018
Rp2019
(dp2020
g7
S'a meeting of high-level leaders .'
p2021
sg9
g10
sg11
S'summit (noun):'
p2022
sg13
S"Since climate change policy has been mired in congressional fighting, this summit should help set the goals for president's next term."
p2023
sbag1
(g2
g3
Ntp2024
Rp2025
(dp2026
g7
S'inclined to anger or bad feelings with overtones of menace .'
p2027
sg9
g10
sg11
S'surly (adjective):'
p2028
sg13
S'Every morning, Bhavin was a surly unhappy person, but once he ate breakfast, he became loving, laughing, and a joy to be around.'
p2029
sbag1
(g2
g3
Ntp2030
Rp2031
(dp2032
g7
S'consideration in dealing with others and avoiding giving offense .'
p2033
sg9
g10
sg11
S'tact (noun):'
p2034
sg13
S"In a tremendous display of tact, Shelly was able to maintain a strong friendship with Marcia, even though Marcia's husband, Frank, confessed to finding Shelley more attractive than Marcia."
p2035
sbag1
(g2
g3
Ntp2036
Rp2037
(dp2038
g7
S'make dirty or spotty, as by exposure to air; also used metaphorically .'
p2039
sg9
g10
sg11
S'tarnish (verb):'
p2040
sg13
S'Pete Rose was one of the best baseball players of his generation, but his involvement with gambling on baseball games has tarnished his image in the eyes of many.'
p2041
sbag1
(g2
g3
Ntp2042
Rp2043
(dp2044
g7
S'tastelessly showy; cheap and shoddy .'
p2045
sg9
g10
sg11
S'tawdry (adjective):'
p2046
sg13
S'Carol expected to find New York City magical, the way so many movies had portrayed it, but she was surprised how often tawdry displays took the place of genuine elegance.'
p2047
sbag1
(g2
g3
Ntp2048
Rp2049
(dp2050
g7
S'use to the limit; exhaust .'
p2051
sg9
g10
sg11
S'taxing (adjective):'
p2052
sg13
S'The hike to the summit of Mt. Whitney was so taxing that I could barely speak or stand up. This word has other definitions but this is the most important one for the GRE'
p2053
sbag1
(g2
g3
Ntp2054
Rp2055
(dp2056
g7
S'significant and revealing of another factor .'
p2057
sg9
g10
sg11
S'telling (adjective):'
p2058
sg13
S'Her unbecoming dress was very telling when it came to her sense of fashion.'
p2059
sbag1
(g2
g3
Ntp2060
Rp2061
(dp2062
g7
S'revealing .'
p2063
sg9
g10
sg11
S'telltale (adjective):'
p2064
sg13
S'The many telltale signs of chronic smoking include yellow teeth, and a persistent, hacking cough.'
p2065
sbag1
(g2
g3
Ntp2066
Rp2067
(dp2068
g7
S'offer up something formally .'
p2069
sg9
g10
sg11
S'tender (verb):'
p2070
sg13
S'The government was loath to tender more money in the fear that it might set off inflation. This word has other definitions but this is the most important one for the GRE'
p2071
sbag1
(g2
g3
Ntp2072
Rp2073
(dp2074
g7
S'very thorough; complete .'
p2075
sg9
g10
sg11
S'thoroughgoing (adjective):'
p2076
sg13
S'As a thoroughgoing bibliophile, one who had turned his house into a veritable library, he shocked his friends when he bought a Kindle.'
p2077
sbag1
(g2
g3
Ntp2078
Rp2079
(dp2080
g7
S'spending money wisely .'
p2081
sg9
g10
sg11
S'thrifty (adjective):'
p2082
sg13
S'He was economical, spending his money thriftily and on items considered essential.'
p2083
sbag1
(g2
g3
Ntp2084
Rp2085
(dp2086
g7
S'hinder or prevent (the efforts, plans, or desires) of .'
p2087
sg9
g10
sg11
S'thwart (verb):'
p2088
sg13
S'I wanted to spend a week in New York this autumn, but the high costs of travel and lodging thwarted my plans.'
p2089
sbag1
(g2
g3
Ntp2090
Rp2091
(dp2092
g7
S'an angry speech .'
p2093
sg9
g10
sg11
S'tirade (noun):'
p2094
sg13
S'In terms of political change, a tirade oftentimes does little more than make the person speaking red in the face.'
p2095
sbag1
(g2
g3
Ntp2096
Rp2097
(dp2098
g7
S'advertize in strongly positive terms; show off .'
p2099
sg9
g10
sg11
S'tout (verb):'
p2100
sg13
S"At the conference, the CEO touted the extraordinary success of his company's Research & Development division."
p2101
sbag1
(g2
g3
Ntp2102
Rp2103
(dp2104
g7
S'lasting a very short time .'
p2105
sg9
g10
sg11
S'transitory (adjective):'
p2106
sg13
S'If we lived forever and life was not transitory, do you think we would appreciate life less or more?'
p2107
sbag1
(g2
g3
Ntp2108
Rp2109
(dp2110
g7
S'use of physical or mental energy; hard work; agony or anguish .'
p2111
sg9
g10
sg11
S'travail (noun):'
p2112
sg13
S'While they experienced nothing but travails in refinishing the kitchen, they completed the master bedroom in less than a weekend.'
p2113
sbag1
(g2
g3
Ntp2114
Rp2115
(dp2116
g7
S'something, especially an event, that causes difficulty and suffering .'
p2117
sg9
g10
sg11
S'tribulation (noun):'
p2118
sg13
S'As of 2013, nearly 1.5 million Syrians have fled their country hoping to escape the tribulations of a civil war tearing their country to pieces.'
p2119
sbag1
(g2
g3
Ntp2120
Rp2121
(dp2122
g7
S'a state of chaos, noise and confusion .'
p2123
sg9
g10
sg11
S'tumult (noun):'
p2124
sg13
S'Riots broke out just in front of our apartment building, and the tumult continued late into the night.'
p2125
sbag1
(g2
g3
Ntp2126
Rp2127
(dp2128
g7
S'suggesting the operation of supernatural influences; surpassing the ordinary or normal .'
p2129
sg9
g10
sg11
S'uncanny (adjective):'
p2130
sg13
S'Reggie has an uncanny ability to connect with animals: feral cats will readily approach him, and sometimes even wild birds will land on his finger.'
p2131
sbag1
(g2
g3
Ntp2132
Rp2133
(dp2134
g7
S'not making concessions .'
p2135
sg9
g10
sg11
S'uncompromising (adjective):'
p2136
sg13
S'The relationship between Bart and Hilda ultimately failed because they were both so uncompromising, never wanting to change their opinions.'
p2137
sbag1
(g2
g3
Ntp2138
Rp2139
(dp2140
g7
S'unreasonable; unscrupulous; excessive .'
p2141
sg9
g10
sg11
S'unconscionable (adjective):'
p2142
sg13
S"The lawyer's demands were so unconscionable that rather than pay an exorbitant sum or submit himself to any other inconveniences, the defendant decided to find a new lawyer."
p2143
sbag1
(g2
g3
Ntp2144
Rp2145
(dp2146
g7
S'to support financially .'
p2147
sg9
g10
sg11
S'underwrite (verb):'
p2148
sg13
S'The latest symphony broadcast was made possible with underwriting from the Carnegie Endowment.'
p2149
sbag1
(g2
g3
Ntp2150
Rp2151
(dp2152
g7
S'to make nervous or upset .'
p2153
sg9
g10
sg11
S'unnerve (verb):'
p2154
sg13
S'At one time unnerved by math problems, she began avidly "Magoosh-ing", and soon became adept at even combinations and permutations questions.'
p2155
sbag1
(g2
g3
Ntp2156
Rp2157
(dp2158
g7
S'having never been done or known before; novel .'
p2159
sg9
g10
sg11
S'unprecedented (adjective):'
p2160
sg13
S'When America first created its national parks, the idea of setting aside the most beautiful land in a country was unprecedented in the history of mankind.'
p2161
sbag1
(g2
g3
Ntp2162
Rp2163
(dp2164
g7
S'(of persons) noisy and lacking in restraint or discipline; unwilling to submit to authority .'
p2165
sg9
g10
sg11
S'unruly (adjective):'
p2166
sg13
S"Walk in to any preschool and I am sure that you will find an unruly and chaotic scene--unless it's nap time."
p2167
sbag1
(g2
g3
Ntp2168
Rp2169
(dp2170
g7
S'not in keeping with accepted standards of what is right or proper in polite society .'
p2171
sg9
g10
sg11
S'unseemly (adjective):'
p2172
sg13
S'He acted in an unseemly manner, insulting the hostess and then speaking ill of her deceased husband.'
p2173
sbag1
(g2
g3
Ntp2174
Rp2175
(dp2176
g7
S'showing a high degree of refinement and the assurance that comes from wide social experience .'
p2177
sg9
g10
sg11
S'urbane (adjective):'
p2178
sg13
S'Because of his service as an intelligence officer and his refined tastes, W. Somerset Maugham became the inspiration for the urbane and sophistcate spy James Bond.'
p2179
sbag1
(g2
g3
Ntp2180
Rp2181
(dp2182
g7
S'devoid of intelligence, matter, or significance .'
p2183
sg9
g10
sg11
S'vacuous (adjective):'
p2184
sg13
S"To the journalist's pointed question, the senator gave a vacuous response, mixing a few of his overall campaign slogans with platitudes and completely avoiding the controversial subject of the question."
p2185
sbag1
(g2
g3
Ntp2186
Rp2187
(dp2188
g7
S'come out better in a competition, race, or conflict .'
p2189
sg9
g10
sg11
S'vanquish (verb):'
p2190
sg13
S'For years, Argentina would dominate in World Cup qualifying matches, only to be vanquished by one of the European countries during the late stages of the tournament.'
p2191
sbag1
(g2
g3
Ntp2192
Rp2193
(dp2194
g7
S'the quality of varying .'
p2195
sg9
g10
sg11
S'variance (noun):'
p2196
sg13
S'The cynic quipped, "There is not much variance in politicians; they all seem to prevaricate".'
p2197
sbag1
(g2
g3
Ntp2198
Rp2199
(dp2200
g7
S'covering consisting of a thin superficial layer that hides the underlying substance .'
p2201
sg9
g10
sg11
S'veneer (noun):'
p2202
sg13
S'Mark Twain referred to the Victorian Period in America as the "Gilded Age", implying the ample moral corruption that lay beneath a mere veneer of respectability.'
p2203
sbag1
(g2
g3
Ntp2204
Rp2205
(dp2206
g7
S'felt or undergone as if one were taking part in the experience or feelings of another .'
p2207
sg9
g10
sg11
S'vicarious (adjective):'
p2208
sg13
S'The advent of twitter is a celebrity stalker\'s dream, as he or she can--through hundreds of intimate "tweets"--vicariously live the life of a famous person.'
p2209
sbag1
(g2
g3
Ntp2210
Rp2211
(dp2212
g7
S'compete for something .'
p2213
sg9
g10
sg11
S'vie (verb):'
p2214
sg13
S'While the other teams in the division actively vie for the championship, this team seems content simply to go through the motions of playing.'
p2215
sbag1
(g2
g3
Ntp2216
Rp2217
(dp2218
g7
S'to have a very strong desire for revenge .'
p2219
sg9
g10
sg11
S'vindictive (adjective):'
p2220
sg13
S"Though the other girl had only lightly poked fun of Vanessa's choice in attire, Vanessa was so vindictive that she waited for an entire semester to get the perfect revenge."
p2221
sbag1
(g2
g3
Ntp2222
Rp2223
(dp2224
g7
S'an ill-tempered or violent woman .'
p2225
sg9
g10
sg11
S'virago (noun):'
p2226
sg13
S"Poor Billy was the victim of the virago's invective--she railed at him for a good 30-minutes about how he is the scum of the earth for speaking loudly on his cellphone in public."
p2227
sbag1
(g2
g3
Ntp2228
Rp2229
(dp2230
g7
S'very hungry; approaching an activity with gusto .'
p2231
sg9
g10
sg11
S'voracious (adjective):'
p2232
sg13
S'Steven was a voracious reader, sometimes finishing two novels in the same day.'
p2233
sbag1
(g2
g3
Ntp2234
Rp2235
(dp2236
g7
S"without check or limitation; showing no moral restraints to one's anger, desire, or appetites ."
p2237
sg9
g10
sg11
S'wanton (adjective):'
p2238
sg13
S'Due to wanton behavior and crude language, the drunk man was thrown out of the bar and asked to never return.'
p2239
sbag1
(g2
g3
Ntp2240
Rp2241
(dp2242
g7
S'to gradually increase in size or intensity .'
p2243
sg9
g10
sg11
S'wax (verb):'
p2244
sg13
S"Her enthusiasm for the diva's new album only waxed with each song; by the end of the album, it was her favorite CD yet. This word has other definitions but this is the most important one for the GRE"
p2245
sbag1
(g2
g3
Ntp2246
Rp2247
(dp2248
g7
S'determined by impulse or whim rather than by necessity or reason .'
p2249
sg9
g10
sg11
S'whimsical (adjective):'
p2250
sg13
S'Adults look to kids and envy their whimsical nature at times, wishing that they could act without reason and play without limitation.'
p2251
sbag1
(g2
g3
Ntp2252
Rp2253
(dp2254
g7
S'the highest point; culmination .'
p2255
sg9
g10
sg11
S'zenith (noun):'
p2256
sg13
S'At the zenith of his artistic career, Elvis was outselling any other artist on the charts.'
p2257
sba.