(lp0
ccopy_reg
_reconstructor
p1
(cword
Word
p2
c__builtin__
object
p3
Ntp4
Rp5
(dp6
S'definition'
p7
S'markedly different from an accepted norm .'
p8
sS'section'
p9
S'Common Words'
p10
sS'name'
p11
S'aberrant (adjective):'
p12
sS'example'
p13
S'When the financial director started screaming and throwing food at his co-workers, the police had to come in to deal with his aberrant behavior.'
p14
sbag1
(g2
g3
Ntp15
Rp16
(dp17
g7
S'a deviation from what is normal or expected .'
p18
sg9
g10
sg11
S'aberration (noun):'
p19
sg13
S'Aberrations in climate have become the norm: rarely a week goes by without some meteorological phenomenon making headlines.'
p20
sbag1
(g2
g3
Ntp21
Rp22
(dp23
g7
S'choose not to consume or take part in (particularly something enjoyable) .'
p24
sg9
g10
sg11
S'abstain (verb):'
p25
sg13
S'Considered a health nut, Jessica abstained from anything containing sugar--even chocolate.'
p26
sbag1
(g2
g3
Ntp27
Rp28
(dp29
g7
S'difficult to understand; incomprehensible .'
p30
sg9
g10
sg11
S'abstruse (adjective):'
p31
sg13
S'Physics textbooks can seem so abstruse to the uninitiated that readers feel as though they are looking at hieroglyphics.'
p32
sbag1
(g2
g3
Ntp33
Rp34
(dp35
g7
S'an award or praise granted as a special honor .'
p36
sg9
g10
sg11
S'accolade (noun):'
p37
sg13
S'Jean Paul-Sartre was not a fan of accolades, and as such, he refused to accept the Nobel Prize for Literature in 1964.'
p38
sbag1
(g2
g3
Ntp39
Rp40
(dp41
g7
S'harsh in tone .'
p42
sg9
g10
sg11
S'acerbic (adjective):'
p43
sg13
S'Most movie critics are acerbic towards summer blockbusters, often referring to them as garbage.'
p44
sbag1
(g2
g3
Ntp45
Rp46
(dp47
g7
S'bitterness and ill will .'
p48
sg9
g10
sg11
S'acrimony (noun):'
p49
sg13
S'The acrimonious dispute between the president and vice-president sent a clear signal to voters: the health of the current administration was imperiled.'
p50
sbag1
(g2
g3
Ntp51
Rp52
(dp53
g7
S"refusing to change one's mind ."
p54
sg9
g10
sg11
S'adamant (adjective):'
p55
sg13
S'Civil rights icon Rosa Parks will forever be remembered for adamantly refusing to give up her seat on a public bus--even after the bus driver insisted, she remained rooted in place.'
p56
sbag1
(g2
g3
Ntp57
Rp58
(dp59
g7
S'to warn strongly, even to the point of reprimanding .'
p60
sg9
g10
sg11
S'admonish (verb):'
p61
sg13
S'Before the concert began, security personel admonished the crowd not to come up on stage during the performance.'
p62
sbag1
(g2
g3
Ntp63
Rp64
(dp65
g7
S'serving to warn; expressing reproof or reproach especially as a corrective .'
p66
sg9
g10
sg11
S'admonitory (adjective):'
p67
sg13
S'At the assembly, the high school vice-principal gave the students an admonitory speech, warning them of the many risks and dangers of prom night.'
p68
sbag1
(g2
g3
Ntp69
Rp70
(dp71
g7
S'one who professes great sensitivity to the beauty of art and nature .'
p72
sg9
g10
sg11
S'aesthete (noun):'
p73
sg13
S'A true aesthete, Marty would spend hours at the Guggenheim Museum, staring at the same Picasso.'
p74
sbag1
(g2
g3
Ntp75
Rp76
(dp77
g7
S'concerned with the appreciation of beauty .'
p78
sg9
g10
sg11
S'aesthetic (adjective):'
p79
sg13
S'The director, not known for his aesthetic sensibilities, decided not to use costumes at all, and put on the play in everyday clothing.'
p80
sbag1
(g2
g3
Ntp81
Rp82
(dp83
g7
S'a set of principles underlying and guiding the work of a particular artist or artistic movement. .'
p84
sg9
g10
sg11
S'aesthetic (noun):'
p85
sg13
S'The artist operated according to a peculiar aesthetic, not considering any photograph to be worth publishing unless it contained a marine mammal.'
p86
sbag1
(g2
g3
Ntp87
Rp88
(dp89
g7
S'a mixture of multiple things .'
p90
sg9
g10
sg11
S'amalgam (noun):'
p91
sg13
S"The band's music was an amalgam of hip-hop, flamenco and jazz, blending the three styles with surprising results."
p92
sbag1
(g2
g3
Ntp93
Rp94
(dp95
g7
S'open to more than one interpretation .'
p96
sg9
g10
sg11
S'ambiguous (adjective):'
p97
sg13
S'The coach told his team, "Move towards that side of the field"; because he did not point, his directions were ambiguous, and the team had no idea to which side he was referring.'
p98
sbag1
(g2
g3
Ntp99
Rp100
(dp101
g7
S'mixed or conflicting emotions about something .'
p102
sg9
g10
sg11
S'ambivalent (adjective):'
p103
sg13
S'Sam was ambivalent about studying for the exam because doing so ate up a lot of his time, yet he was able to improve his analytical skills.'
p104
sbag1
(g2
g3
Ntp105
Rp106
(dp107
g7
S'make something bad better .'
p108
sg9
g10
sg11
S'ameliorate (verb):'
p109
sg13
S'Three Cups of Tea tells the story of western man who hopes to ameliorate poverty and the lack of education in Afghanistan.'
p110
sbag1
(g2
g3
Ntp111
Rp112
(dp113
g7
S'easily persuaded .'
p114
sg9
g10
sg11
S'amenable (adjective):'
p115
sg13
S'Even though she did not like the outdoors, Shirley was generally amenable and so her brother was able to persuade her to go camping.'
p116
sbag1
(g2
g3
Ntp117
Rp118
(dp119
g7
S'shapeless .'
p120
sg9
g10
sg11
S'amorphous (adjective):'
p121
sg13
S'His study plan for the GRE was at best amorphous; he would do questions from random pages in any one of seven test prep books.'
p122
sbag1
(g2
g3
Ntp123
Rp124
(dp125
g7
S'not normal .'
p126
sg9
g10
sg11
S'anomalous (adjective):'
p127
sg13
S'According to those who do not believe in climate change, the extreme weather over the last five years is simply anomalous--average temps should return to average, they believe.'
p128
sbag1
(g2
g3
Ntp129
Rp130
(dp131
g7
S'something that is not normal, standard, or expected .'
p132
sg9
g10
sg11
S'anomaly (noun):'
p133
sg13
S'After finding an anomaly in the data, she knew that she would have to conduct her experiment again.'
p134
sbag1
(g2
g3
Ntp135
Rp136
(dp137
g7
S'an intense feeling of dislike or aversion .'
p138
sg9
g10
sg11
S'antipathy (noun):'
p139
sg13
S'Maria had an antipathy for tour groups, often bolting to the other side of the museum as soon as she saw a chaperone leading a group of wide-eyed tourists.'
p140
sbag1
(g2
g3
Ntp141
Rp142
(dp143
g7
S'sharply contrasted in character or purpose .'
p144
sg9
g10
sg11
S'antithetical (adjective):'
p145
sg13
S'His deep emotional involvement with these ideas is, in fact, antithetical to the disattachment Buddhism preaches.'
p146
sbag1
(g2
g3
Ntp147
Rp148
(dp149
g7
S'marked by a lack of interest .'
p150
sg9
g10
sg11
S'apathetic (adjective):'
p151
sg13
S'Mr. Thompson was so talented at teaching math that even normally apathetic students took interest.'
p152
sbag1
(g2
g3
Ntp153
Rp154
(dp155
g7
S'an absence of emotion or enthusiasm .'
p156
sg9
g10
sg11
S'apathy (noun):'
p157
sg13
S'Widespread apathy among voters led to a very small turnout on election day.'
p158
sbag1
(g2
g3
Ntp159
Rp160
(dp161
g7
S'being of questionable authenticity .'
p162
sg9
g10
sg11
S'apocryphal (adjective):'
p163
sg13
S'The web is notorious for sandwiching apocryphal stories between actual news.'
p164
sbag1
(g2
g3
Ntp165
Rp166
(dp167
g7
S'pacify by acceding to the demands of .'
p168
sg9
g10
sg11
S'appease (verb):'
p169
sg13
S'Neville Chamberlain, the British prime minister during WWII, tried to appease Hitler and in doing so sent a clear message: you can walk all over us.'
p170
sbag1
(g2
g3
Ntp171
Rp172
(dp173
g7
S'based on a random, groundless decision .'
p174
sg9
g10
sg11
S'arbitrary (adjective):'
p175
sg13
S"One of the arbitrary decrees in place during the emperor's rule is that all citizens pay him weekly homage at his palace. This word has other definitions but this is the most important one for the GRE"
p176
sbag1
(g2
g3
Ntp177
Rp178
(dp179
g7
S'requiring secret or mysterious knowledge .'
p180
sg9
g10
sg11
S'arcane (adjective):'
p181
sg13
S'Most college fraternities are known for arcane rituals that those hoping to the join the fraterntiy must learn.'
p182
sbag1
(g2
g3
Ntp183
Rp184
(dp185
g7
S'demanding considerable mental effort and skill; testing powers of endurance .'
p186
sg9
g10
sg11
S'arduous (adjective):'
p187
sg13
S'In order to deal with the arduous cross-country journey, truck drivers often survive on a string of caffeinated drinks, staying awake for up to 30 hours at a time.'
p188
sbag1
(g2
g3
Ntp189
Rp190
(dp191
g7
S'exhibiting artistic skill .'
p192
sg9
g10
sg11
S'artful (adjective):'
p193
sg13
S'Picasso is generally considered the most artful member of the Cubist movement.'
p194
sbag1
(g2
g3
Ntp195
Rp196
(dp197
g7
S'clever in a cunning way .'
p198
sg9
g10
sg11
S'artful (adjective):'
p199
sg13
S"Bernie Madoff's artful Ponzi scheme stole billions of dollars from investors and is considered the largest financial fraud in U.S. history."
p200
sbag1
(g2
g3
Ntp201
Rp202
(dp203
g7
S'practicing self-denial .'
p204
sg9
g10
sg11
S'ascetic (adjective):'
p205
sg13
S'His ascetic life is the main reason he inspired so many followers, especially since he gave up wealth and power to live in poverty.'
p206
sbag1
(g2
g3
Ntp207
Rp208
(dp209
g7
S'one who practices great self-denial .'
p210
sg9
g10
sg11
S'ascetic (noun):'
p211
sg13
S'Historically, ascetics like Ghandi are often considered wise men partially because of their restraint.'
p212
sbag1
(g2
g3
Ntp213
Rp214
(dp215
g7
S'with a look of suspicion or disapproval .'
p216
sg9
g10
sg11
S'askance (adverb):'
p217
sg13
S'The old couple looked askance on the teenagers seated next to them, whispering to each other, "They\'ve got rings through their noses and purple hair!"'
p218
sbag1
(g2
g3
Ntp219
Rp220
(dp221
g7
S'willing to be bold in social situations or to take risks .'
p222
sg9
g10
sg11
S'audacious (adjective):'
p223
sg13
S'As all of the other campers cowered in their tents, Bill, armed only with a flashlight, audaciously tracked down the bear that had raided their food.'
p224
sbag1
(g2
g3
Ntp225
Rp226
(dp227
g7
S'aggressive boldness in social situations .'
p228
sg9
g10
sg11
S'audacity (noun):'
p229
sg13
S'She surprised her colleagues by having the audacity to publically criticize the findings of an distinguished scientist.'
p230
sbag1
(g2
g3
Ntp231
Rp232
(dp233
g7
S'favorable, the opposite of sinister .'
p234
sg9
g10
sg11
S'auspicious (adjective):'
p235
sg13
S"Despite an auspicious beginning, Mike's road trip became a series of mishaps, and he was soon stranded and penniless, leaning against his wrecked automobile."
p236
sbag1
(g2
g3
Ntp237
Rp238
(dp239
g7
S'practicing self-denial .'
p240
sg9
g10
sg11
S'austere (adjective):'
p241
sg13
S'His lifestyle of revelry and luxurious excess could hardly be called austere.'
p242
sbag1
(g2
g3
Ntp243
Rp244
(dp245
g7
S'unadorned in style or appearance .'
p246
sg9
g10
sg11
S'austere (adjective):'
p247
sg13
S'Late Soviet architecture, although remaining largely austere, moved into experimental territory that employed previously unused shapes and structures.'
p248
sbag1
(g2
g3
Ntp249
Rp250
(dp251
g7
S'harsh in manner of temperament .'
p252
sg9
g10
sg11
S'austere (adjective):'
p253
sg13
S'The principal of my elementary school was a cold, austere woman; I could never understand why she chose to work with children.'
p254
sbag1
(g2
g3
Ntp255
Rp256
(dp257
g7
S'excessively greedy .'
p258
sg9
g10
sg11
S'avaricious (adjective):'
p259
sg13
S'Since avaricious desire is similar to gluttony or lust--sins of excess--it was listed as one of the seven deadly sins by the Catholic church.'
p260
sbag1
(g2
g3
Ntp261
Rp262
(dp263
g7
S'repeated too often; overfamiliar through overuse .'
p264
sg9
g10
sg11
S'banal (adjective):'
p265
sg13
S'The professor used such banal expression that many students in the class either fell asleep from bordeom or stayed awake to complete his sentences and humor friends.'
p266
sbag1
(g2
g3
Ntp267
Rp268
(dp269
g7
S'a trite or obvious remark .'
p270
sg9
g10
sg11
S'banality (noun):'
p271
sg13
S"Herbert regarded the minister's remark as a mere banality until Sharon pointed out profound implications to the seemingly obvious words."
p272
sbag1
(g2
g3
Ntp273
Rp274
(dp275
g7
S'to give a false representation to; misrepresent .'
p276
sg9
g10
sg11
S'belie (verb):'
p277
sg13
S'The smile on her face belies the pain she must feel after the death of her husband.'
p278
sbag1
(g2
g3
Ntp279
Rp280
(dp281
g7
S'characteristic of one eager to fight .'
p282
sg9
g10
sg11
S'belligerent (adjective):'
p283
sg13
S'Tom said that he was arguing the matter purely for philosophical reasons, but his belligerent tone indicated an underlying anger about the issue.'
p284
sbag1
(g2
g3
Ntp285
Rp286
(dp287
g7
S'to reveal or make known something, usually unintentionally .'
p288
sg9
g10
sg11
S'betray (verb):'
p289
sg13
S'With the gold medal at stake, the gymnast awaited his turn, his quivering lip betraying his intense emotions.'
p290
sbag1
(g2
g3
Ntp291
Rp292
(dp293
g7
S'without any attempt at concealment; completely obvious .'
p294
sg9
g10
sg11
S'blatant (adjective):'
p295
sg13
S'Allen was often punished in school for blatantly disrespecting teachers.'
p296
sbag1
(g2
g3
Ntp297
Rp298
(dp299
g7
S'support and strengthen .'
p300
sg9
g10
sg11
S'bolster (verb):'
p301
sg13
S"The case for the suspect's innocence was bolstered considerably by the fact that neither fingerprints nor DNA were found at the scene. This word has other definitions but this is the most important one for the GRE"
p302
sbag1
(g2
g3
Ntp303
Rp304
(dp305
g7
S'unrestrained by convention or propriety .'
p306
sg9
g10
sg11
S'brazen (adjective):'
p307
sg13
S'Their large "donations" to the local police department gave the drug cartel the brazen confidence to do their business out in the open.'
p308
sbag1
(g2
g3
Ntp309
Rp310
(dp311
g7
S'relating to the pleasant aspects of the country .'
p312
sg9
g10
sg11
S'bucolic (adjective):'
p313
sg13
S'The noble families of England once owned vast expanses of beautiful, bucolic land.'
p314
sbag1
(g2
g3
Ntp315
Rp316
(dp317
g7
S'lacking physical movement skills, especially with the hands .'
p318
sg9
g10
sg11
S'bumbling (adjective):'
p319
sg13
S'Within a week of starting, the bumbling new waiter was unceremoniously fired.'
p320
sbag1
(g2
g3
Ntp321
Rp322
(dp323
g7
S'grow and flourish .'
p324
sg9
g10
sg11
S'burgeon (verb):'
p325
sg13
S"China's housing market is burgeoning, but some predict that the growth is merely a bubble and will burst much like the U.S. real estate bubble of 2008."
p326
sbag1
(g2
g3
Ntp327
Rp328
(dp329
g7
S"making of a false statement meant to injure a person's reputation ."
p330
sg9
g10
sg11
S'calumny (noun):'
p331
sg13
S'With the presidential primaries well under way, the air is thick with calumny, and the mud already waist-high.'
p332
sbag1
(g2
g3
Ntp333
Rp334
(dp335
g7
S'determined by chance or impulse or whim rather than by necessity or reason .'
p336
sg9
g10
sg11
S'capricious (adjective):'
p337
sg13
S'Nearly every month our capricious CEO had a new plan to turn the company around, and none of them worked because we never gave them the time they needed to succeed.'
p338
sbag1
(g2
g3
Ntp339
Rp340
(dp341
g7
S'to reprimand harshly .'
p342
sg9
g10
sg11
S'castigate (verb):'
p343
sg13
S'Drill sergeants are known to castigate new recruits so mercilessly that the latter often break down during their first week in training.'
p344
sbag1
(g2
g3
Ntp345
Rp346
(dp347
g7
S'to express strong disapproval .'
p348
sg9
g10
sg11
S'censure (verb):'
p349
sg13
S'After being caught in bed with a mistress, the mayor was quickly censured by the city council.'
p350
sbag1
(g2
g3
Ntp351
Rp352
(dp353
g7
S'to reprimand harshly .'
p354
sg9
g10
sg11
S'chastise (verb):'
p355
sg13
S"Though chastised for his wanton abuse of the pantry, Lawrence shrugged off his mother's harsh words, and continued to plow through jars of cookies and boxes of donuts."
p356
sbag1
(g2
g3
Ntp357
Rp358
(dp359
g7
S'to chuckle, laugh merrily .'
p360
sg9
g10
sg11
S'chortle (verb):'
p361
sg13
S'Walking past the bar, I could hear happy, chortling people and the blast of horns from a jazz band.'
p362
sbag1
(g2
g3
Ntp363
Rp364
(dp365
g7
S'restrict or confine .'
p366
sg9
g10
sg11
S'circumscribe (verb):'
p367
sg13
S'Their tour of South America was circumscribed so that they saw only popular destinations and avoided the dangerous parts of cities. This word has other definitions but this is the most important one for the GRE'
p368
sbag1
(g2
g3
Ntp369
Rp370
(dp371
g7
S"cleverly find a way out of one's duties or obligations ."
p372
sg9
g10
sg11
S'circumvent (verb):'
p373
sg13
S'One way of circumventing the GRE is to apply to a grad school that does not require GRE scores.'
p374
sbag1
(g2
g3
Ntp375
Rp376
(dp377
g7
S'to be in proportion or corresponding in degree or amount .'
p378
sg9
g10
sg11
S'commensurate (adjective):'
p379
sg13
S"The convicted felon's life sentence was commensurate to the heinousness of his crime."
p380
sbag1
(g2
g3
Ntp381
Rp382
(dp383
g7
S'acknowledge defeat .'
p384
sg9
g10
sg11
S'concede (verb):'
p385
sg13
S'I concede. You win!'
p386
sbag1
(g2
g3
Ntp387
Rp388
(dp389
g7
S'admit (to a wrongdoing) .'
p390
sg9
g10
sg11
S'concede (verb):'
p391
sg13
S'After a long, stern lecture from her father, Olivia conceded to having broken the window.'
p392
sbag1
(g2
g3
Ntp393
Rp394
(dp395
g7
S'give over; surrender or relinquish to the physical control of another .'
p396
sg9
g10
sg11
S'concede (verb):'
p397
sg13
S'The Spanish were forced to concede much of the territory they had previously conquered.'
p398
sbag1
(g2
g3
Ntp399
Rp400
(dp401
g7
S'be confusing or perplexing to .'
p402
sg9
g10
sg11
S'confound (verb):'
p403
sg13
S'Though Harry loved numbers, he found calculus confounding.'
p404
sbag1
(g2
g3
Ntp405
Rp406
(dp407
g7
S'mistake one thing for another .'
p408
sg9
g10
sg11
S'confound (verb):'
p409
sg13
S'Americans often confound sweet potatoes with yams, and refer to both vegetables by the same name.'
p410
sbag1
(g2
g3
Ntp411
Rp412
(dp413
g7
S'without any attempt at concealment; completely obvious .'
p414
sg9
g10
sg11
S'conspicuous (adjective):'
p415
sg13
S'American basketball players are always conspicuous when they go abroad--not only are they American, but some are over seven feet tall.'
p416
sbag1
(g2
g3
Ntp417
Rp418
(dp419
g7
S'a citizen who is represented in a government by officials for whom he or she votes .'
p420
sg9
g10
sg11
S'constituent (noun):'
p421
sg13
S"The mayor's constituents are no longer happy with her performance and plan to vote for another candidate in the upcoming election."
p422
sbag1
(g2
g3
Ntp423
Rp424
(dp425
g7
S'an abstract part of something .'
p426
sg9
g10
sg11
S'constituent (noun):'
p427
sg13
S'The constituents of the metal alloy are nickle, copper, and tin.'
p428
sbag1
(g2
g3
Ntp429
Rp430
(dp431
g7
S'interpreted in a particular way .'
p432
sg9
g10
sg11
S'construe (verb):'
p433
sg13
S"The author's inability to take a side on the issue was construed by both his opponents and supporters as a sign of weakness."
p434
sbag1
(g2
g3
Ntp435
Rp436
(dp437
g7
S'a gathering of persons representative of some larger group .'
p438
sg9
g10
sg11
S'contingent (noun):'
p439
sg13
S'A small contingent of those loyal to the king have gathered around the castle to defend it.'
p440
sbag1
(g2
g3
Ntp441
Rp442
(dp443
g7
S'possible but not certain to occur .'
p444
sg9
g10
sg11
S'contingent (adjective):'
p445
sg13
S'Whether the former world champions can win again this year is contingent upon none of its star players getting injured.'
p446
sbag1
(g2
g3
Ntp447
Rp448
(dp449
g7
S'the feeling of remorse or guilt that comes from doing something bad .'
p450
sg9
g10
sg11
S'contrition (noun):'
p451
sg13
S'Those who show contrition during their prison terms--especially when under review by a parole board--often get shortened sentences.'
p452
sbag1
(g2
g3
Ntp453
Rp454
(dp455
g7
S'to pull off a plan or scheme, usually through skill or trickery .'
p456
sg9
g10
sg11
S'contrive (verb):'
p457
sg13
S'Despite a low GPA, he contrived to get into college, going so far as to write his own glowing letters of recommendation. This word has other definitions but this is the most important one for the GRE'
p458
sbag1
(g2
g3
Ntp459
Rp460
(dp461
g7
S'in abundant supply .'
p462
sg9
g10
sg11
S'copious (adjective):'
p463
sg13
S'In midsummer, there are copious popiscle stands at the beach; in the winter, there are none.'
p464
sbag1
(g2
g3
Ntp465
Rp466
(dp467
g7
S'pathetically cowardly .'
p468
sg9
g10
sg11
S'craven (adjective):'
p469
sg13
S'Though the man could have at least alerted the police, he crouched cravenly in the corner as the old woman was mugged.'
p470
sbag1
(g2
g3
Ntp471
Rp472
(dp473
g7
S'mysterious or vague, usually intentionally .'
p474
sg9
g10
sg11
S'cryptic (adjective):'
p475
sg13
S'Since Sarah did not want her husband to guess the Christmas present she had bought him, she only answered cryptically when he would ask her questions about it.'
p476
sbag1
(g2
g3
Ntp477
Rp478
(dp479
g7
S'reach the highest or most decisive point .'
p480
sg9
g10
sg11
S'culminate (verb):'
p481
sg13
S"Beethoven's musical genius culminated in the 9th Symphony, which many consider his greatest work."
p482
sbag1
(g2
g3
Ntp483
Rp484
(dp485
g7
S'a state of guilt .'
p486
sg9
g10
sg11
S'culpability (noun):'
p487
sg13
S"Since John had left his banana peel at the top of the stairwell, he accepted culpability for Martha's broken leg."
p488
sbag1
(g2
g3
Ntp489
Rp490
(dp491
g7
S'characterized by good taste in manners and conduct .'
p492
sg9
g10
sg11
S'decorous (adjective):'
p493
sg13
S"Sally's parties are decorous affairs, and instead of the usual beer and music, there is tea and intellectual conversation."
p494
sbag1
(g2
g3
Ntp495
Rp496
(dp497
g7
S'propriety in manners and conduct .'
p498
sg9
g10
sg11
S'decorum (noun):'
p499
sg13
S'You will obey the rules of decorum for this courtroom or spend the night in a jail cell, said the judge to the prosecutor.'
p500
sbag1
(g2
g3
Ntp501
Rp502
(dp503
g7
S'showing respect .'
p504
sg9
g10
sg11
S'deferential (adjective):'
p505
sg13
S'If you ever have the chance to meet the president, stand up straight and be deferential.'
p506
sbag1
(g2
g3
Ntp507
Rp508
(dp509
g7
S'harmful to living things .'
p510
sg9
g10
sg11
S'deleterious (adjective):'
p511
sg13
S'The BP oil spill in the Gulf of Mexico was deleterious to the fishing industry in the southern states.'
p512
sbag1
(g2
g3
Ntp513
Rp514
(dp515
g7
S'describe in detail .'
p516
sg9
g10
sg11
S'delineate (verb):'
p517
sg13
S'After a brief summary of proper swimming technique, the coach delineated the specifics of each stroke, spending 30 minutes alone on the backstroke.'
p518
sbag1
(g2
g3
Ntp519
Rp520
(dp521
g7
S'to object or show reluctance .'
p522
sg9
g10
sg11
S'demur (verb):'
p523
sg13
S'Wallace disliked the cold, so he demurred when his friends suggested they going skiing in the Alps.'
p524
sbag1
(g2
g3
Ntp525
Rp526
(dp527
g7
S'charge falsely or with malicious intent; attack the good name and reputation of someone .'
p528
sg9
g10
sg11
S'denigrate (verb):'
p529
sg13
S'Count Rumford denigrated the new theory of heat, demonstrating that it was wholly inadequate to explain the observations.'
p530
sbag1
(g2
g3
Ntp531
Rp532
(dp533
g7
S'be a sign or indication of; have as a meaning .'
p534
sg9
g10
sg11
S'denote (verb):'
p535
sg13
S'Even if the text is not visible, the red octagon denotes "stop" to all motorists in America.'
p536
sbag1
(g2
g3
Ntp537
Rp538
(dp539
g7
S'(or a creative product, e.g. music, writing, etc.) not original but drawing on the work of another person .'
p540
sg9
g10
sg11
S'derivative (adjective):'
p541
sg13
S'Because the movies were utterly derivative of other popular movies, they did well at the box office. This word has other definitions but this is the most important one for the GRE'
p542
sbag1
(g2
g3
Ntp543
Rp544
(dp545
g7
S'come from; be connected by a relationship of blood, for example .'
p546
sg9
g10
sg11
S'derive (verb):'
p547
sg13
S'Many words in the English language are derived from Latin, including the word "derive."'
p548
sbag1
(g2
g3
Ntp549
Rp550
(dp551
g7
S'reason by deduction; establish by deduction .'
p552
sg9
g10
sg11
S'derive (verb):'
p553
sg13
S'From the multiple set of footprints in the living room, the investigator derived an important clue: Sheila was not alone in the room at the time of the murder.'
p554
sbag1
(g2
g3
Ntp555
Rp556
(dp557
g7
S'expecting unquestioning obedience; characteristic of an absolute ruler .'
p558
sg9
g10
sg11
S'dictatorial (adjective):'
p559
sg13
S'The coach was dictatorial in his approach: no players could ever argue or question his approach.'
p560
sbag1
(g2
g3
Ntp561
Rp562
(dp563
g7
S'instructive (especially excessively) .'
p564
sg9
g10
sg11
S'didactic (adjective):'
p565
sg13
S"Tolstoy's The Death of Ivan Illyich is a didactic novel, instructing the reader on how to live a good life."
p566
sbag1
(g2
g3
Ntp567
Rp568
(dp569
g7
S'showing modest reserve; lacking self-confidence .'
p570
sg9
g10
sg11
S'diffident (adjective):'
p571
sg13
S'As a young girl she was diffident and reserved, but now as an adult, she is confident and assertive.'
p572
sbag1
(g2
g3
Ntp573
Rp574
(dp575
g7
S'wasting time .'
p576
sg9
g10
sg11
S'dilatory (adjective):'
p577
sg13
S'Lawyers use dilatory tactics so that it takes years before the case is actually decided.'
p578
sbag1
(g2
g3
Ntp579
Rp580
(dp581
g7
S'an amateur who engages in an activity without serious intentions and who pretends to have knowledge .'
p582
sg9
g10
sg11
S'dilettante (noun):'
p583
sg13
S'Fred has no formal medical training; while he likes to claim authority on medical issues, he is little more than a dilettante'
p584
sbag1
(g2
g3
Ntp585
Rp586
(dp587
g7
S'discontented as toward authority .'
p588
sg9
g10
sg11
S'disaffected (adjective):'
p589
sg13
S'After watching his superior take rations from the soliders, he quickly became disaffected and rebeled.'
p590
sbag1
(g2
g3
Ntp591
Rp592
(dp593
g7
S'constituting a separate entity or part .'
p594
sg9
g10
sg11
S'discrete (adjective):'
p595
sg13
S'What was once known as Czechoslovakia has since split into two discrete, independent nations.'
p596
sbag1
(g2
g3
Ntp597
Rp598
(dp599
g7
S'unbiased; neutral .'
p600
sg9
g10
sg11
S'disinterested (adjective):'
p601
sg13
S'The potential juror knew the defendant, and therefore could not serve on the jury, which must consist only of disinterested members.'
p602
sbag1
(g2
g3
Ntp603
Rp604
(dp605
g7
S'unaffected by strong emotion or prejudice .'
p606
sg9
g10
sg11
S'dispassionate (adjective):'
p607
sg13
S'A good scientist should be dispassionate, focusing purely on what the evidence says, without personal attachment.'
p608
sbag1
(g2
g3
Ntp609
Rp610
(dp611
g7
S'cause to become widely known .'
p612
sg9
g10
sg11
S'disseminate (verb):'
p613
sg13
S'Before the effects of anaethesia were disseminated, patients had to experience the full pain of a surgery.'
p614
sbag1
(g2
g3
Ntp615
Rp616
(dp617
g7
S'highly opinionated, not accepting that your belief may not be correct .'
p618
sg9
g10
sg11
S'dogmatic (adjective):'
p619
sg13
S'Bryan is dogmatic in his belief that the earth is flat, claiming that all pictures of a spherical earth are computer generated.'
p620
sbag1
(g2
g3
Ntp621
Rp622
(dp623
g7
S'compulsory force or threat .'
p624
sg9
g10
sg11
S'duress (noun):'
p625
sg13
S'The witness said he signed the contract under duress and argued that the court should cancel the agreement.'
p626
sbag1
(g2
g3
Ntp627
Rp628
(dp629
g7
S'comprised of a variety of styles .'
p630
sg9
g10
sg11
S'eclectic (adjective):'
p631
sg13
S'Joey was known for his eclectic tastes in music, one moment dancing to disco the next "air conducting" along to Beethoven\'s 9th symphony.'
p632
sbag1
(g2
g3
Ntp633
Rp634
(dp635
g7
S'avoiding waste, efficient .'
p636
sg9
g10
sg11
S'economical (adjective):'
p637
sg13
S'Journalists favor an economical style of writing, in which no unnecessary words are used and every sentence is as short as possible.'
p638
sbag1
(g2
g3
Ntp639
Rp640
(dp641
g7
S'enlightening or uplifting so as to encourage intellectual or moral improvement .'
p642
sg9
g10
sg11
S'edifying (adjective):'
p643
sg13
S'I recently read an article in the Times about whether good literature is edifying or not; specifically, does reading more make a person more moral.'
p644
sbag1
(g2
g3
Ntp645
Rp646
(dp647
g7
S'producing the intended result .'
p648
sg9
g10
sg11
S'efficacious (adjective):'
p649
sg13
S"Since Maggie's cough syrup, which had expired five years back, was no longer efficacious, she coughed through the night."
p650
sbag1
(g2
g3
Ntp651
Rp652
(dp653
g7
S'standing out in negative way; shockingly bad .'
p654
sg9
g10
sg11
S'egregious (adjective):'
p655
sg13
S"The dictator's abuse of human rights was so egregious that many world leaders asked that he be tried in an international court for genocide."
p656
sbag1
(g2
g3
Ntp657
Rp658
(dp659
g7
S'call forth (emotions, feelings, and responses) .'
p660
sg9
g10
sg11
S'elicit (verb):'
p661
sg13
S'Just smiling--even if you are depressed--can elicit feelings of pleasure and happiness.'
p662
sbag1
(g2
g3
Ntp663
Rp664
(dp665
g7
S'make clearer and easier to understand .'
p666
sg9
g10
sg11
S'elucidate (verb):'
p667
sg13
S'Youtube is great place to learn just about anything--an expert elucidates finer points so that even a complete novice can learn.'
p668
sbag1
(g2
g3
Ntp669
Rp670
(dp671
g7
S'standing above others in quality or position .'
p672
sg9
g10
sg11
S'eminent (adjective):'
p673
sg13
S'Shakespeare is an eminent author in the English language, but I find his writing uninteresting and melodramatic.'
p674
sbag1
(g2
g3
Ntp675
Rp676
(dp677
g7
S'to sap energy from .'
p678
sg9
g10
sg11
S'enervate (verb):'
p679
sg13
S"John preferred to avoid equatorial countries; the intense sun would always leave him enervated after he'd spent the day sightseeing."
p680
sbag1
(g2
g3
Ntp681
Rp682
(dp683
g7
S'give rise to .'
p684
sg9
g10
sg11
S'engender (verb):'
p685
sg13
S'The restrictions of the Treaty of Versailles were so severe that they engendered deep hatred and resentment in the German people.'
p686
sbag1
(g2
g3
Ntp687
Rp688
(dp689
g7
S'fixed firmly or securely .'
p690
sg9
g10
sg11
S'entrenched (adjective):'
p691
sg13
S'By the time we reach 60-years old, most of our habits are so entrenched that it is difficult for us to change.'
p692
sbag1
(g2
g3
Ntp693
Rp694
(dp695
g7
S'lasting a very short time .'
p696
sg9
g10
sg11
S'ephemeral (adjective):'
p697
sg13
S'The lifespan of a mayfly is ephemeral, lasting from a few hours to a couple of days.'
p698
sbag1
(g2
g3
Ntp699
Rp700
(dp701
g7
S'confusing or ambiguous .'
p702
sg9
g10
sg11
S'equivocal (adjective):'
p703
sg13
S'The findings of the study were equivocal--the two researchers had different opinions on what the results signified.'
p704
sbag1
(g2
g3
Ntp705
Rp706
(dp707
g7
S'to completely destroy .'
p708
sg9
g10
sg11
S'eradicate (verb):'
p709
sg13
S'I tried eradicating the mosquitos in my apartment with a rolled up newspaper, but there were too many of them.'
p710
sbag1
(g2
g3
Ntp711
Rp712
(dp713
g7
S'having or showing profound knowledge .'
p714
sg9
g10
sg11
S'erudite (adjective):'
p715
sg13
S'Before the Internet, the library was typically were you would find erudite readers.'
p716
sbag1
(g2
g3
Ntp717
Rp718
(dp719
g7
S'avoid and stay away from deliberately; stay clear of .'
p720
sg9
g10
sg11
S'eschew (verb):'
p721
sg13
S'Politicians are the masters of eschewing morals; academics are the masters of eschewing clarity.'
p722
sbag1
(g2
g3
Ntp723
Rp724
(dp725
g7
S'confined to and understandable by only an enlightened inner circle .'
p726
sg9
g10
sg11
S'esoteric (adjective):'
p727
sg13
S'Map collecting is an esoteric hobby to most, but to geography geeks it is a highly enjoyable pasttime.'
p728
sbag1
(g2
g3
Ntp729
Rp730
(dp731
g7
S'to adopt or support an idea or cause .'
p732
sg9
g10
sg11
S'espouse (verb):'
p733
sg13
S'As a college student, Charlie espoused Marxism, growing his beard out and railing against the evils of the free-market.'
p734
sbag1
(g2
g3
Ntp735
Rp736
(dp737
g7
S'make worse .'
p738
sg9
g10
sg11
S'exacerbate (verb):'
p739
sg13
S'Her sleeplessness exacerbated her cold--when she woke up the next day, her sinuses were completely blocked.'
p740
sbag1
(g2
g3
Ntp741
Rp742
(dp743
g7
S'requiring and demanding accuracy .'
p744
sg9
g10
sg11
S'exacting (adjective):'
p745
sg13
S'Though his childhood piano teacher was so exacting, Max is thankful now, as a professional pianist.'
p746
sbag1
(g2
g3
Ntp747
Rp748
(dp749
g7
S'praise or glorify .'
p750
sg9
g10
sg11
S'exalt (verb):'
p751
sg13
S'The teenagers exalted the rock star, covering their bedrooms with posters of him.'
p752
sbag1
(g2
g3
Ntp753
Rp754
(dp755
g7
S'pronounce not guilty of criminal charges .'
p756
sg9
g10
sg11
S'exonerate (verb):'
p757
sg13
S'The document clearly indicated that Nick was out of the state at the time of the crime, and so served to exonerate him of any charges.'
p758
sbag1
(g2
g3
Ntp759
Rp760
(dp761
g7
S'add details or explanation; clarify the meaning; state in depth .'
p762
sg9
g10
sg11
S'expound (verb):'
p763
sg13
S'The CEO refused to expound on the decision to merge our department with another one, and so I quit.'
p764
sbag1
(g2
g3
Ntp765
Rp766
(dp767
g7
S'the opposite of extinct .'
p768
sg9
g10
sg11
S'extant (adjective):'
p769
sg13
S'Despite many bookstores closing, experts predict that some form of book dealing will still be extant generations from now.'
p770
sbag1
(g2
g3
Ntp771
Rp772
(dp773
g7
S'of a belief that is based on faulty reasoning .'
p774
sg9
g10
sg11
S'fallacious (adjective):'
p775
sg13
S'The widespread belief that Eskimos have forty different words for snow is fallacious, based on one false report.'
p776
sbag1
(g2
g3
Ntp777
Rp778
(dp779
g7
S'overly concerned with details; fussy .'
p780
sg9
g10
sg11
S'fastidious (adjective):'
p781
sg13
S'Whitney is fastidious about her shoes, arranging them on a shelf in a specific order, each pair evenly spaced.'
p782
sbag1
(g2
g3
Ntp783
Rp784
(dp785
g7
S'a state of uncertainty about what should be done (usually following some important event) .'
p786
sg9
g10
sg11
S'flux (noun):'
p787
sg13
S'Ever since Elvira resigned as the head of marketing, everything about our sales strategy has been in a state of flux.'
p788
sbag1
(g2
g3
Ntp789
Rp790
(dp791
g7
S'try to stir up public opinion .'
p792
sg9
g10
sg11
S'foment (verb):'
p793
sg13
S'After having his pay cut, Phil spread vicious rumors about his boss, hoping to foment a general feeling of discontent.'
p794
sbag1
(g2
g3
Ntp795
Rp796
(dp797
g7
S'marked by or showing hopelessness .'
p798
sg9
g10
sg11
S'forlorn (adjective):'
p799
sg13
S'After her third pet dog died, Marcia was simply forlorn: this time even the possibility of buying a new dog no longer held any joy.'
p800
sbag1
(g2
g3
Ntp801
Rp802
(dp803
g7
S'available when required or as promised .'
p804
sg9
g10
sg11
S'forthcoming (adjective):'
p805
sg13
S'The President announced that the senators were about to reach a compromise, and that he was eager to read the forthcoming details of the bill.'
p806
sbag1
(g2
g3
Ntp807
Rp808
(dp809
g7
S'at ease in talking to others .'
p810
sg9
g10
sg11
S'forthcoming (adjective):'
p811
sg13
S"As a husband, Larry was not forthcoming: if Jill didn't demand to know details, Larry would never share them with her."
p812
sbag1
(g2
g3
Ntp813
Rp814
(dp815
g7
S'occurring by happy chance; having no cause or apparent cause .'
p816
sg9
g10
sg11
S'fortuitous (adjective):'
p817
sg13
S'While the real objects are vastly different sizes in space, the sun and the moon seem to have the same fortuitous size in the sky.'
p818
sbag1
(g2
g3
Ntp819
Rp820
(dp821
g7
S'not serious in content or attitude or behavior .'
p822
sg9
g10
sg11
S'frivolous (adjective):'
p823
sg13
S"Compared to Juliet's passionate concern for human rights, Jake's non-stop concern about football seems somewhat frivolous."
p824
sbag1
(g2
g3
Ntp825
Rp826
(dp827
g7
S'not spending much money (but spending wisely) .'
p828
sg9
g10
sg11
S'frugal (adjective):'
p829
sg13
S'Monte was no miser, but was simply frugal, wisely spending the little that he earned.'
p830
sbag1
(g2
g3
Ntp831
Rp832
(dp833
g7
S'hinder or prevent (the efforts, plans, or desires) of .'
p834
sg9
g10
sg11
S'frustrate (verb):'
p835
sg13
S'I thought I would finish writing the paper by lunchtime, but a number of urgent interruptions served to frustrate my plan. This word has other definitions but this is the most important one for the GRE'
p836
sbag1
(g2
g3
Ntp837
Rp838
(dp839
g7
S'marked by quiet and caution and secrecy; taking pains to avoid being observed .'
p840
sg9
g10
sg11
S'furtive (adjective):'
p841
sg13
S'While at work, George and his boss Regina felt the need to be as furtive as possible about their romantic relationship.'
p842
sbag1
(g2
g3
Ntp843
Rp844
(dp845
g7
S'deny or contradict; speak against or oppose .'
p846
sg9
g10
sg11
S'gainsay (verb):'
p847
sg13
S"I can't gainsay a single piece of evidence James has presented, but I still don't trust his conclusion."
p848
sbag1
(g2
g3
Ntp849
Rp850
(dp851
g7
S'the trait of being rude and impertinent .'
p852
sg9
g10
sg11
S'gall (noun):'
p853
sg13
S"Even though Carly was only recently hired, she had the gall to question her boss's judgment in front of the office."
p854
sbag1
(g2
g3
Ntp855
Rp856
(dp857
g7
S'feeling of deep and bitter anger and ill-will .'
p858
sg9
g10
sg11
S'gall (noun):'
p859
sg13
S'In an act of gall, Leah sent compromising photos of her ex-boyfriend to all his co-workers and professional contacts.'
p860
sbag1
(g2
g3
Ntp861
Rp862
(dp863
g7
S'to excite or inspire (someone) to action .'
p864
sg9
g10
sg11
S'galvanize (verb):'
p865
sg13
S'At mile 23 of his first marathon, Kyle had all but given up, until he noticed his friends and family holding a banner that read, "Go Kyle"; galvanized, he broke into a gallop, finishing the last three miles in less than 20 minutes.'
p866
sbag1
(g2
g3
Ntp867
Rp868
(dp869
g7
S'full of trivial conversation .'
p870
sg9
g10
sg11
S'garrulous (adjective):'
p871
sg13
S"Lynne was garrulous: once, she had a fifteen minute conversation with a stranger before she realized the woman didn't speak English."
p872
sbag1
(g2
g3
Ntp873
Rp874
(dp875
g7
S'lacking social polish .'
p876
sg9
g10
sg11
S'gauche (adjective):'
p877
sg13
S'Sylvester says the most gauche things, such as telling a girl he liked that she was much prettier when she wore makeup.'
p878
sbag1
(g2
g3
Ntp879
Rp880
(dp881
g7
S'relevant and appropriate .'
p882
sg9
g10
sg11
S'germane (adjective):'
p883
sg13
S"The professor wanted to tell the jury in detail about his new book, but the lawyer said it wasn't germane to the charges in the cases."
p884
sbag1
(g2
g3
Ntp885
Rp886
(dp887
g7
S'an excessive supply .'
p888
sg9
g10
sg11
S'glut (noun):'
p889
sg13
S'The Internet offers such a glut of news related stories that many find it difficult to know which story to read first.'
p890
sbag1
(g2
g3
Ntp891
Rp892
(dp893
g7
S'supply with an excess of .'
p894
sg9
g10
sg11
S'glut (verb):'
p895
sg13
S'In the middle of economic crises, hiring managers find their inboxes glutted with resumes.'
p896
sbag1
(g2
g3
Ntp897
Rp898
(dp899
g7
S'characterized by unusual lightness and delicacy .'
p900
sg9
g10
sg11
S'gossamer (adjective):'
p901
sg13
S'The gossamer wings of a butterfly, which allow it to fly, are also a curse, so delicate that they are often damaged.'
p902
sbag1
(g2
g3
Ntp903
Rp904
(dp905
g7
S'to be likely to socialize with others .'
p906
sg9
g10
sg11
S'gregarious (adjective):'
p907
sg13
S'Often we think that great leaders are those who are gregarious, always in the middle of a large group of people; yet, as Mahatma Gandhi and many others have shown us, leaders can also be introverted.'
p908
sbag1
(g2
g3
Ntp909
Rp910
(dp911
g7
S'free of deceit .'
p912
sg9
g10
sg11
S'guileless (adjective):'
p913
sg13
S'At first I thought my niece was guileless, but I then found myself buying her ice cream every time we passed a shop.'
p914
sbag1
(g2
g3
Ntp915
Rp916
(dp917
g7
S'lacking significance through having been overused .'
p918
sg9
g10
sg11
S'hackneyed (adjective):'
p919
sg13
S'Cheryl rolled her eyes when she heard the lecturer\'s hackneyed advice to "be true to yourself."'
p920
sbag1
(g2
g3
Ntp921
Rp922
(dp923
g7
S'marked by great carelessness; dependent upon or characterized by chance .'
p924
sg9
g10
sg11
S'haphazard (adjective):'
p925
sg13
S'Many golf courses are designed with great care, but the greens on the county golf course seem entirely haphazard.'
p926
sbag1
(g2
g3
Ntp927
Rp928
(dp929
g7
S'a long pompous speech; a tirade .'
p930
sg9
g10
sg11
S'harangue (noun):'
p931
sg13
S"Dinner at Billy's was more a punishment than a reward, since anyone who sat at the dinner table would have to listen to Billy's father's interminable harangues against the government."
p932
sbag1
(g2
g3
Ntp933
Rp934
(dp935
g7
S'to deliver a long pompous speech or tirade .'
p936
sg9
g10
sg11
S'harangue (verb):'
p937
sg13
S'Tired of his parents haranguing him about his laziness and lack of initiative, Tyler finally moved out of home at the age of thirty-five.'
p938
sbag1
(g2
g3
Ntp939
Rp940
(dp941
g7
S'troubled persistently especially with petty annoyances .'
p942
sg9
g10
sg11
S'harried (adjective):'
p943
sg13
S'With a team of new hires to train, Martha was constantly harried with little questions and could not focus on her projects.'
p944
sbag1
(g2
g3
Ntp945
Rp946
(dp947
g7
S'having or showing arrogant superiority to and disdain of those one views as unworthy .'
p948
sg9
g10
sg11
S'haughty (adjective):'
p949
sg13
S"The haughty manager didn't believe that any of his subordinates could ever have an insight as brilliant his own."
p950
sbag1
(g2
g3
Ntp951
Rp952
(dp953
g7
S'dominance over a certain area .'
p954
sg9
g10
sg11
S'hegemony (adjective):'
p955
sg13
S'Until the Spanish Armada was defeated in 1587, Spain had hegemony over the seas, controlling waters stretching as far as the Americas.'
p956
sbag1
(g2
g3
Ntp957
Rp958
(dp959
g7
S'a person who holds unorthodox opinions in any field (not merely religion) .'
p960
sg9
g10
sg11
S'heretic (noun):'
p961
sg13
S'Though everybody at the gym told Mikey to do cardio before weights, Mikey was a heretic and always did the reverse.'
p962
sbag1
(g2
g3
Ntp963
Rp964
(dp965
g7
S'somebody who attacks cherished beliefs or institutions .'
p966
sg9
g10
sg11
S'iconoclast (noun):'
p967
sg13
S'Lady Gaga, in challenging what it means to be clothed, is an iconoclast for wearing a "meat dress" to a prominent awards show.'
p968
sbag1
(g2
g3
Ntp969
Rp970
(dp971
g7
S'defying tradition or convention .'
p972
sg9
g10
sg11
S'iconoclastic (adjective):'
p973
sg13
S'Jackson Pollack was an iconoclastic artist, totally breaking with tradition by splashing paint on a blank canvas.'
p974
sbag1
(g2
g3
Ntp975
Rp976
(dp977
g7
S'a behavioral attribute that is distinctive and peculiar to an individual .'
p978
sg9
g10
sg11
S'idiosyncrasy (noun):'
p979
sg13
S"Peggy's numerous idiosyncrasies include wearing mismatched shoes, laughing loudly to herself, and owning a pet aardvark."
p980
sbag1
(g2
g3
Ntp981
Rp982
(dp983
g7
S'dishonorable .'
p984
sg9
g10
sg11
S'ignoble (adjective):'
p985
sg13
S'In the 1920s, the World Series was rigged--an ignoble act which baseball took decades to recover from.'
p986
sbag1
(g2
g3
Ntp987
Rp988
(dp989
g7
S'(used of conduct or character) deserving or bringing disgrace or shame .'
p990
sg9
g10
sg11
S'ignominious (adjective):'
p991
sg13
S'Since the politician preached ethics and morality, his texting of revealing photographs was ignominious, bringing shame on both himself and his party.'
p992
sbag1
(g2
g3
Ntp993
Rp994
(dp995
g7
S'not able to be changed .'
p996
sg9
g10
sg11
S'immutable (adjective):'
p997
sg13
S'Taxes are one of the immutable laws of the land, so there is no use arguing about paying them.'
p998
sbag1
(g2
g3
Ntp999
Rp1000
(dp1001
g7
S'free from undue bias or preconceived opinions .'
p1002
sg9
g10
sg11
S'impartial (adjective):'
p1003
sg13
S"The judge was not impartial since he had been bribed by the witness's family."
p1004
sbag1
(g2
g3
Ntp1005
Rp1006
(dp1007
g7
S'being disrespectful; improperly forward or bold .'
p1008
sg9
g10
sg11
S'impertinent (adjective):'
p1009
sg13
S"Dexter, distraught over losing his pet dachshund, Madeline, found the police officer's questions impertinent--after all, he thought, did she have to pry into such details as to what Madeline's favorite snack was?"
p1010
sbag1
(g2
g3
Ntp1011
Rp1012
(dp1013
g7
S'incapable of making less angry or hostile .'
p1014
sg9
g10
sg11
S'implacable (adjective):'
p1015
sg13
S'Win or lose, the coach was always implacable, never giving the athletes an easy practice or a break.'
p1016
sbag1
(g2
g3
Ntp1017
Rp1018
(dp1019
g7
S'describing a statement that is not believable .'
p1020
sg9
g10
sg11
S'implausible (adjective):'
p1021
sg13
S'The teacher found it implausible that the student was late to school because he had been kidnapped by outlaws on horseback.'
p1022
sbag1
(g2
g3
Ntp1023
Rp1024
(dp1025
g7
S'not wise .'
p1026
sg9
g10
sg11
S'imprudent (adjective):'
p1027
sg13
S'Hitler, like Napoleon, made the imprudent move of invading Russia in winter, suffering even more casualties than Napoleon had.'
p1028
sbag1
(g2
g3
Ntp1029
Rp1030
(dp1031
g7
S'improperly forward or bold .'
p1032
sg9
g10
sg11
S'impudent (adjective):'
p1033
sg13
S'In an impudent move, the defendant spoke out of order to say terribly insulting things to the judge.'
p1034
sbag1
(g2
g3
Ntp1035
Rp1036
(dp1037
g7
S'having or demonstrating ability to recognize or draw fine distinctions .'
p1038
sg9
g10
sg11
S'incisive (adjective):'
p1039
sg13
S'The lawyer had an incisive mind, able in a flash to dissect a hopelessly tangled issue and isolate the essential laws at play.'
p1040
sbag1
(g2
g3
Ntp1041
Rp1042
(dp1043
g7
S'lacking in harmony or compatibility or appropriateness .'
p1044
sg9
g10
sg11
S'incongruous (adjective):'
p1045
sg13
S"The vast economic inequality of modern society is incongruous with America's ideals."
p1046
sbag1
(g2
g3
Ntp1047
Rp1048
(dp1049
g7
S'impervious to correction by punishment .'
p1050
sg9
g10
sg11
S'incorrigible (adjective):'
p1051
sg13
S"Tom Sawyer seems like an incorrigible youth until Huck Finn enters the novel; even Sawyer can't match his fierce individual spirit."
p1052
sbag1
(g2
g3
Ntp1053
Rp1054
(dp1055
g7
S'not in keeping with accepted standards of what is right or proper in polite society .'
p1056
sg9
g10
sg11
S'indecorous (adjective):'
p1057
sg13
S'Eating with elbows on the table is considered indecorous in refined circles.'
p1058
sbag1
(g2
g3
Ntp1059
Rp1060
(dp1061
g7
S'the trait of seeming not to care .'
p1062
sg9
g10
sg11
S'indifference (noun):'
p1063
sg13
S'In an effort to fight indifference, the president of the college introduced a new, stricter grading system.'
p1064
sbag1
(g2
g3
Ntp1065
Rp1066
(dp1067
g7
S'impossible to stop or prevent .'
p1068
sg9
g10
sg11
S'inexorable (adjective):'
p1069
sg13
S'The rise of the computer was an inexorable shift in technology and culture.'
p1070
sbag1
(g2
g3
Ntp1071
Rp1072
(dp1073
g7
S'to be na\xc3\x83\xc2\xafve and innocent .'
p1074
sg9
g10
sg11
S'ingenuous (adjective):'
p1075
sg13
S'Two-years in Manhattan had changed Jenna from an ingenuous girl from the suburbs to a jaded urbanite, unlikely to fall for any ruse, regardless of how elaborate.'
p1076
sbag1
(g2
g3
Ntp1077
Rp1078
(dp1079
g7
S'gain favor with somebody by deliberate efforts .'
p1080
sg9
g10
sg11
S'ingratiate (verb):'
p1081
sg13
S"Even though Tom didn't like his new boss, he decided to ingratiate himself to her in order to advance his career."
p1082
sbag1
(g2
g3
Ntp1083
Rp1084
(dp1085
g7
S'hostile (usually describes conditions or environments) .'
p1086
sg9
g10
sg11
S'inimical (adjective):'
p1087
sg13
S'Venus, with a surface temperature that would turn rubber to liquid, is inimical to any form of life.'
p1088
sbag1
(g2
g3
Ntp1089
Rp1090
(dp1091
g7
S'harmless and doesn"t produce any ill effects .'
p1092
sg9
g10
sg11
S'innocuous (adjective):'
p1093
sg13
S"Everyone found Nancy's banter innocuous--except for Mike, who felt like she was intentionally picking on him."
p1094
sbag1
(g2
g3
Ntp1095
Rp1096
(dp1097
g7
S'not easily understood; unfathomable .'
p1098
sg9
g10
sg11
S'inscrutable (adjective):'
p1099
sg13
S'His speech was so dense and confusing that many in the audience found it inscrutable.'
p1100
sbag1
(g2
g3
Ntp1101
Rp1102
(dp1103
g7
S'working in a subtle but destructive way .'
p1104
sg9
g10
sg11
S'insidious (adjective):'
p1105
sg13
S'Plaque is insidious: we cannot see it, but each day it eats away at our enamel, causing cavities and other dental problems.'
p1106
sbag1
(g2
g3
Ntp1107
Rp1108
(dp1109
g7
S'rude and arrogant .'
p1110
sg9
g10
sg11
S'insolent (adjective):'
p1111
sg13
S"Lilian could not help herself from being insolent, commenting that the Queen's shoes were showing too much toe."
p1112
sbag1
(g2
g3
Ntp1113
Rp1114
(dp1115
g7
S'to suggest something subtly .'
p1116
sg9
g10
sg11
S'intimate (verb):'
p1117
sg13
S"At first Manfred's teachers intimated to his parents that he was not suited to skip a grade; when his parents protested, teachers explicitly told them that, notwithstanding the boy's precocity, he was simply too immature to jump to the 6th grade. This word has other definitions but this is the most important one for the GRE"
p1118
sbag1
(g2
g3
Ntp1119
Rp1120
(dp1121
g7
S"unwilling to change one's beliefs or course of action ."
p1122
sg9
g10
sg11
S'intransigent (adjective):'
p1123
sg13
S'Despite many calls for mercy, the judge remained intransigent, citing strict legal precedence.'
p1124
sbag1
(g2
g3
Ntp1125
Rp1126
(dp1127
g7
S'fearless .'
p1128
sg9
g10
sg11
S'intrepid (adjective):'
p1129
sg13
S'Captain Ahab was an intrepid captain whose reckless and fearless style ultimate leads to his downfall.'
p1130
sbag1
(g2
g3
Ntp1131
Rp1132
(dp1133
g7
S'habitual .'
p1134
sg9
g10
sg11
S'inveterate (adjective):'
p1135
sg13
S'He is an inveterate smoker and has told his family and friends that there is no way he will ever quit.'
p1136
sbag1
(g2
g3
Ntp1137
Rp1138
(dp1139
g7
S'complicated, and difficult to comprehend .'
p1140
sg9
g10
sg11
S'involved (adjective):'
p1141
sg13
S"The physics lecture became so involved that the undergraduate's eyes glazed over."
p1142
sbag1
(g2
g3
Ntp1143
Rp1144
(dp1145
g7
S'incapable of being retracted or revoked .'
p1146
sg9
g10
sg11
S'irrevocable (adjective):'
p1147
sg13
S'Once you enter your plea to the court, it is irrevocable so think carefully about what you will say.'
p1148
sbag1
(g2
g3
Ntp1149
Rp1150
(dp1151
g7
S'traveling from place to place to work .'
p1152
sg9
g10
sg11
S'itinerant (adjective):'
p1153
sg13
S"Doctors used to be itinerant, traveling between patients' homes."
p1154
sbag1
(g2
g3
Ntp1155
Rp1156
(dp1157
g7
S'fanatical patriotism .'
p1158
sg9
g10
sg11
S'jingoism (noun):'
p1159
sg13
S'North Korea maintains intense control over its population through a combination of jingoism and cult of personality.'
p1160
sbag1
(g2
g3
Ntp1161
Rp1162
(dp1163
g7
S'full of or showing high-spirited merriment .'
p1164
sg9
g10
sg11
S'jovial (adjective):'
p1165
sg13
S'The political candidate and his supporters were jovial once it was clear that she had won.'
p1166
sbag1
(g2
g3
Ntp1167
Rp1168
(dp1169
g7
S'full of high-spirited delight because of triumph or success .'
p1170
sg9
g10
sg11
S'jubilant (adjective):'
p1171
sg13
S'My hardwork paid off, and I was jubilant to receive a perfect score on the GRE.'
p1172
sbag1
(g2
g3
Ntp1173
Rp1174
(dp1175
g7
S'place side by side .'
p1176
sg9
g10
sg11
S'juxtapose (verb):'
p1177
sg13
S'The meaning of her paintings comes from a classical style which juxtaposes modern themes.'
p1178
sbag1
(g2
g3
Ntp1179
Rp1180
(dp1181
g7
S'one who says very few words .'
p1182
sg9
g10
sg11
S'laconic (adjective):'
p1183
sg13
S'While Martha always swooned over the hunky, laconic types in romantic comedies, her boyfriends inevitably were very talkative--and not very hunky.'
p1184
sbag1
(g2
g3
Ntp1185
Rp1186
(dp1187
g7
S'criticize severely or angrily .'
p1188
sg9
g10
sg11
S'lambast (verb):'
p1189
sg13
S'Showing no patience, the manager utterly lambasted the sales team that lost the big account.'
p1190
sbag1
(g2
g3
Ntp1191
Rp1192
(dp1193
g7
S'not inclined towards physical exertion or effort; slow and relaxed .'
p1194
sg9
g10
sg11
S'languid (adjective):'
p1195
sg13
S'As the sun beat down and the temperature climbed higher, we spent a languid week lying around the house.'
p1196
sbag1
(g2
g3
Ntp1197
Rp1198
(dp1199
g7
S'extreme generosity and giving .'
p1200
sg9
g10
sg11
S'largess (noun):'
p1201
sg13
S'Uncle Frank was known for his largess, so his nephew was sad when he did not receive a present for his birthday.'
p1202
sbag1
(g2
g3
Ntp1203
Rp1204
(dp1205
g7
S'worthy of high praise .'
p1206
sg9
g10
sg11
S'laudable (adjective):'
p1207
sg13
S"To say that Gandhi's actions were laudable is the greatest understatement; he overthrew an empire without violence."
p1208
sbag1
(g2
g3
Ntp1209
Rp1210
(dp1211
g7
S'assign great social importance to .'
p1212
sg9
g10
sg11
S'lionize (verb):'
p1213
sg13
S'Students in the U.S. learn to lionize Jefferson, Franklin, and Washington because they are the founding fathers of the nation.'
p1214
sbag1
(g2
g3
Ntp1215
Rp1216
(dp1217
g7
S'noble and generous in spirit, especially towards a rival or someone less powerful .'
p1218
sg9
g10
sg11
S'magnanimous (adjective):'
p1219
sg13
S'He was a great sportsman: in defeat he was complementary and in victory he was magnanimous.'
p1220
sbag1
(g2
g3
Ntp1221
Rp1222
(dp1223
g7
S'to assert .'
p1224
sg9
g10
sg11
S'maintain (verb):'
p1225
sg13
S'The scientist maintained that the extinction of dinosaurs was most likely brought about by a drastic change in climate.'
p1226
sbag1
(g2
g3
Ntp1227
Rp1228
(dp1229
g7
S'clumsy .'
p1230
sg9
g10
sg11
S'maladroit (adjective):'
p1231
sg13
S'As a child she was quite maladroit, but as an adult, she has become an adept dancer. This word has other definitions but this is the most important one for the GRE'
p1232
sbag1
(g2
g3
Ntp1233
Rp1234
(dp1235
g7
S'someone who exhibits great independence in thought and action .'
p1236
sg9
g10
sg11
S'maverick (noun):'
p1237
sg13
S'Officer Kelly was a maverick, rarely following police protocols or adopting the conventions for speech common among his fellow officers.'
p1238
sbag1
(g2
g3
Ntp1239
Rp1240
(dp1241
g7
S'overly sentimental to the point that it is disgusting .'
p1242
sg9
g10
sg11
S'mawkish (adjective):'
p1243
sg13
S'The film was incredibly mawkish, introducing highly likeable characters only to have them succumb to a devastating illnesses by the end of the movie.'
p1244
sbag1
(g2
g3
Ntp1245
Rp1246
(dp1247
g7
S'the tendency to be untruthful .'
p1248
sg9
g10
sg11
S'mendacity (noun):'
p1249
sg13
S'I can forgive her for her mendacity but only because she is a child and is seeing what she can get away with.'
p1250
sbag1
(g2
g3
Ntp1251
Rp1252
(dp1253
g7
S'(of a person) prone to unexpected and unpredictable changes in mood .'
p1254
sg9
g10
sg11
S'mercurial (adjective):'
p1255
sg13
S"The fact that Ella's moods were as mercurial as the weather was problematic for her relationships--it didn't help that she lived in Chicago."
p1256
sbag1
(g2
g3
Ntp1257
Rp1258
(dp1259
g7
S'marked by extreme care in treatment of details .'
p1260
sg9
g10
sg11
S'meticulous (adjective):'
p1261
sg13
S'The Japanese noodle maker was meticulous in making his noodles and would never let another person take over the task.'
p1262
sbag1
(g2
g3
Ntp1263
Rp1264
(dp1265
g7
S'interpret in the wrong way .'
p1266
sg9
g10
sg11
S'misconstrue (verb):'
p1267
sg13
S'The politician never trusted journalists because he though that they misconstrue his words and misrepresent his positions.'
p1268
sbag1
(g2
g3
Ntp1269
Rp1270
(dp1271
g7
S'make less severe or harsh .'
p1272
sg9
g10
sg11
S'mitigate (verb):'
p1273
sg13
S'I can only spend so much time mitigating your disagreements with your wife, and at certain point, you need to do it on your own.'
p1274
sbag1
(g2
g3
Ntp1275
Rp1276
(dp1277
g7
S'lessen the severity of an offense .'
p1278
sg9
g10
sg11
S'mitigate (verb):'
p1279
sg13
S"If it weren't for the mitigating circumstances, he would have certainly lost his job."
p1280
sbag1
(g2
g3
Ntp1281
Rp1282
(dp1283
g7
S'to make someone angry less angry; placate .'
p1284
sg9
g10
sg11
S'mollify (verb):'
p1285
sg13
S'In the morning, Harriat was unable to mollify Harry, if he happened to become angry, unless he had his cup of coffee.'
p1286
sbag1
(g2
g3
Ntp1287
Rp1288
(dp1289
g7
S'repetitive and boring; not spiritual .'
p1290
sg9
g10
sg11
S'mundane (adjective):'
p1291
sg13
S'Nancy found doing dishes a thorougly mundane task, although Peter found a kind of Zen pleasure in the chore.'
p1292
sbag1
(g2
g3
Ntp1293
Rp1294
(dp1295
g7
S'relating to the ordinary world .'
p1296
sg9
g10
sg11
S'mundane (adjective):'
p1297
sg13
S'Though we think of the pope as someone always dealing in holy matters, he is also concerned with mundane events, such as deciding when to set his alarm each morning.'
p1298
sbag1
(g2
g3
Ntp1299
Rp1300
(dp1301
g7
S'very generous .'
p1302
sg9
g10
sg11
S'munificent (adjective):'
p1303
sg13
S'Uncle Charley was known for his munificence, giving all seven of his nephews lavish Christmas presents each year.'
p1304
sbag1
(g2
g3
Ntp1305
Rp1306
(dp1307
g7
S'lacking foresight or imagination .'
p1308
sg9
g10
sg11
S'myopic (adjective):'
p1309
sg13
S"The company ultimately went out of business because the myopic managers couldn't predict the changes in their industry. This word has other definitions but this is the most important one for the GRE"
p1310
sbag1
(g2
g3
Ntp1311
Rp1312
(dp1313
g7
S'a large indefinite number .'
p1314
sg9
g10
sg11
S'myriad (noun):'
p1315
sg13
S'There are a myriad of internet sites hawking pills that claim to boost energy for hours on end.'
p1316
sbag1
(g2
g3
Ntp1317
Rp1318
(dp1319
g7
S'so small as to be meaningless; insignificant .'
p1320
sg9
g10
sg11
S'negligible (adjective):'
p1321
sg13
S'The GRE tests cumulative knowledge, so if you cram the night before it is, at best, likely to only have a negligible impact on your score.'
p1322
sbag1
(g2
g3
Ntp1323
Rp1324
(dp1325
g7
S'unsure how to act or respond .'
p1326
sg9
g10
sg11
S'nonplussed (verb):'
p1327
sg13
S'Shirley was totally nonplussed when the angry motorist cut her off and then stuck his finger out the window.'
p1328
sbag1
(g2
g3
Ntp1329
Rp1330
(dp1331
g7
S'a subtle difference in meaning or opinion or attitude .'
p1332
sg9
g10
sg11
S'nuance (noun):'
p1333
sg13
S'Because of the nuances involved in this case, I hired an outside consultant to advice us and help.'
p1334
sbag1
(g2
g3
Ntp1335
Rp1336
(dp1337
g7
S'make unclear .'
p1338
sg9
g10
sg11
S'obscure (verb):'
p1339
sg13
S"On the Smith's drive through the Grand Canyon, Mr. Smith's big head obscured much of Mrs. Robinson's view, so that she only saw momentary patches of red rock. This word has other definitions but this is the most important one for the GRE"
p1340
sbag1
(g2
g3
Ntp1341
Rp1342
(dp1343
g7
S'known by only a few .'
p1344
sg9
g10
sg11
S'obscure (adjective):'
p1345
sg13
S'Many of the biggest movie stars were once obscure actors who got only bit roles in long forgotten films. This word has other definitions but this is the most important one for the GRE'
p1346
sbag1
(g2
g3
Ntp1347
Rp1348
(dp1349
g7
S'attentive in an ingratiating or servile manner; attempting to win favor from influential people by flattery .'
p1350
sg9
g10
sg11
S'obsequious (adjective):'
p1351
sg13
S"The obsequious waiter did not give the couple a moment's peace all through the meal, constantly returning to their table to refill their water glasses and to tell them what a handsome pair they made."
p1352
sbag1
(g2
g3
Ntp1353
Rp1354
(dp1355
g7
S'not clearly understood or expressed .'
p1356
sg9
g10
sg11
S'opaque (adjective):'
p1357
sg13
S"The meaning of the professor's new research was opaque to most people, so no one asked any questions. This word has other definitions but this is the most important one for the GRE"
p1358
sbag1
(g2
g3
Ntp1359
Rp1360
(dp1361
g7
S'wealth as evidenced by sumptuous living .'
p1362
sg9
g10
sg11
S'opulence (noun):'
p1363
sg13
S'Russian oligarchs are famous for their opulence, living in fancy homes and dining on expensive cavier.'
p1364
sbag1
(g2
g3
Ntp1365
Rp1366
(dp1367
g7
S'intended to attract notice and impress others; tawdry or vulgar .'
p1368
sg9
g10
sg11
S'ostentatious (adjective):'
p1369
sg13
S'Matt wanted to buy stone lions for front of the house, but Cynthia convinced him that such a display would be too ostentatious for a modest house in an unassuming neighborhood.'
p1370
sbag1
(g2
g3
Ntp1371
Rp1372
(dp1373
g7
S'exclude from a community or group .'
p1374
sg9
g10
sg11
S'ostracize (verb):'
p1375
sg13
S'Later in his life, Leo Tolstoy was ostracized from the Russian Orthodox Church for his writings that contradicted church doctrine.'
p1376
sbag1
(g2
g3
Ntp1377
Rp1378
(dp1379
g7
S'distinctive and stylish elegance .'
p1380
sg9
g10
sg11
S'panache (noun):'
p1381
sg13
S'Jim, with his typical panache, came to the wedding reception with a top hat, a cane, and a long cape covered in sequins.'
p1382
sbag1
(g2
g3
Ntp1383
Rp1384
(dp1385
g7
S'narrowly restricted in scope or outlook .'
p1386
sg9
g10
sg11
S'parochial (adjective):'
p1387
sg13
S'Jasmine was sad to admit it, but her fledgling relationship with Jacob did not work out because his culinary tastes were simply too parochial; "After all," she quipped on her blog, "he considered Chef Boyardee ethnic food."'
p1388
sbag1
(g2
g3
Ntp1389
Rp1390
(dp1391
g7
S'extremely frugal; miserly .'
p1392
sg9
g10
sg11
S'parsimonious (adjective):'
p1393
sg13
S'Katie is so parsimonious that she only buys a pair of socks if all of her other socks have holes in them.'
p1394
sbag1
(g2
g3
Ntp1395
Rp1396
(dp1397
g7
S'marked by a narrow focus on or display of learning especially its trivial aspects .'
p1398
sg9
g10
sg11
S'pedantic (adjective):'
p1399
sg13
S'Professor Thompson was regarded as an expert in his field, but his lectures were utterly pedantic, focused on rigorous details of the most trivial conventions in the field.'
p1400
sbag1
(g2
g3
Ntp1401
Rp1402
(dp1403
g7
S'lacking imagination .'
p1404
sg9
g10
sg11
S'pedestrian (adjective):'
p1405
sg13
S'While Nan was always engaged in philosophical speculation, her brother was occupied with far more pedestrian concerns: how to earn a salary and run a household. This word has other definitions but this is the most important one for the GRE'
p1406
sbag1
(g2
g3
Ntp1407
Rp1408
(dp1409
g7
S'expressing disapproval (usu. refers to a term) .'
p1410
sg9
g10
sg11
S'pejorative (adjective):'
p1411
sg13
S'Most psychologists object to the pejorative term "shrink", believing that they expand the human mind, not limit it. This word has other definitions but this is the most important one for the GRE'
p1412
sbag1
(g2
g3
Ntp1413
Rp1414
(dp1415
g7
S'an act of deliberate betrayal; a breach of a trust .'
p1416
sg9
g10
sg11
S'perfidy (noun):'
p1417
sg13
S"The lowest circles in Dante's Inferno were for those who had practiced perfidy, and among these, the very lowest was for those, such as Judas, who had been treacherous to one of their benefactors."
p1418
sbag1
(g2
g3
Ntp1419
Rp1420
(dp1421
g7
S'exceedingly harmful; working or spreading in a hidden and injurious way .'
p1422
sg9
g10
sg11
S'pernicious (adjective):'
p1423
sg13
S'The most successful viruses are pernicious: an infected person may feel perfectly healthy for several months while incubating and spreading the virus.'
p1424
sbag1
(g2
g3
Ntp1425
Rp1426
(dp1427
g7
S'easily irritated or annoyed .'
p1428
sg9
g10
sg11
S'petulant (adjective):'
p1429
sg13
S"When Ed first met Ruth, he didn't realize she was so petulant, but now that they are three months into their relationship, Ed feels a day doesn't go by in which she isn't whining about some minor issue."
p1430
sbag1
(g2
g3
Ntp1431
Rp1432
(dp1433
g7
S'cause to be more favorably inclined; gain the good will of .'
p1434
sg9
g10
sg11
S'placate (verb):'
p1435
sg13
S'I was able to placate the angry mob of students by promising to bring cookies on Monday.'
p1436
sbag1
(g2
g3
Ntp1437
Rp1438
(dp1439
g7
S'a trite or obvious remark .'
p1440
sg9
g10
sg11
S'platitude (noun):'
p1441
sg13
S'The professor argued that many statements regarded as wise in previous times, such as the Golden Rule, are now regarded as mere platitudes.'
p1442
sbag1
(g2
g3
Ntp1443
Rp1444
(dp1445
g7
S'emotionally touching .'
p1446
sg9
g10
sg11
S'poignant (adjective):'
p1447
sg13
S"After the Montagues and Capulets discover the dead bodies of Romeo and Juliet, in the play's most poignant moment, the two griefstricken familes agree to end their feud once and for all. This word has other definitions but this is the most important one for the GRE"
p1448
sbag1
(g2
g3
Ntp1449
Rp1450
(dp1451
g7
S'a strong verbal or written attack on someone or something. .'
p1452
sg9
g10
sg11
S'polemic (noun):'
p1453
sg13
S'The professor launched into a polemic, claiming that Freudian theory was a pack of lies that absolutely destroyed European literary theory. This word has other definitions but this is the most important one for the GRE'
p1454
sbag1
(g2
g3
Ntp1455
Rp1456
(dp1457
g7
S'assume as fact .'
p1458
sg9
g10
sg11
S'posit (verb):'
p1459
sg13
S'Initially, Einstein posited a repulsive force to balance Gravity, but then rejected that idea as a blunder.'
p1460
sbag1
(g2
g3
Ntp1461
Rp1462
(dp1463
g7
S'guided by practical experience and observation rather than theory .'
p1464
sg9
g10
sg11
S'pragmatic (adjective):'
p1465
sg13
S'Rather than make a philosophical appeal to the Congressmen, the Speaker decided to take a far more pragmatic approach, making small side-deals that would add votes to his bill.'
p1466
sbag1
(g2
g3
Ntp1467
Rp1468
(dp1469
g7
S'done with very great haste and without due deliberation .'
p1470
sg9
g10
sg11
S'precipitous (adjective):'
p1471
sg13
S'He was expecting a precipitous rise in the value of a "hot" tech stock, so he was disappointed when it only inched up a dollar or two each day.'
p1472
sbag1
(g2
g3
Ntp1473
Rp1474
(dp1475
g7
S'keep from happening or arising; make impossible .'
p1476
sg9
g10
sg11
S'preclude (verb):'
p1477
sg13
S'The manager specified that all other gates be locked, to preclude the possibility of persons without tickets entering the arena undetected.'
p1478
sbag1
(g2
g3
Ntp1479
Rp1480
(dp1481
g7
S'characterized by or characteristic of exceptionally early development or maturity (especially in mental aptitude) .'
p1482
sg9
g10
sg11
S'precocious (adjective):'
p1483
sg13
S'Though only seven years old, she was a precocious chess prodigy, able to beat players twice her age.'
p1484
sbag1
(g2
g3
Ntp1485
Rp1486
(dp1487
g7
S'a strong liking .'
p1488
sg9
g10
sg11
S'predilection (noun):'
p1489
sg13
S'Monte had a predilection for the fine things in life: Cuban cigars, 200 dollar bottles of wine, and trips to the French Riviera.'
p1490
sbag1
(g2
g3
Ntp1491
Rp1492
(dp1493
g7
S'the power to foresee the future .'
p1494
sg9
g10
sg11
S'prescience (noun):'
p1495
sg13
S"Baxter's warnings about investing in technology stocks seemed like an act of prescience after the whole market declined significantly."
p1496
sbag1
(g2
g3
Ntp1497
Rp1498
(dp1499
g7
S'to speak in an evasive way .'
p1500
sg9
g10
sg11
S'prevaricate (verb):'
p1501
sg13
S'The cynic quipped, "There is not much variance in politicians; they all seem to prevaricate".'
p1502
sbag1
(g2
g3
Ntp1503
Rp1504
(dp1505
g7
S'rashly or wastefully extravagant .'
p1506
sg9
g10
sg11
S'prodigal (adjective):'
p1507
sg13
S'Successful professional athletes who do not fall prey to prodigality seem to be the exception--most live decadent lives.'
p1508
sbag1
(g2
g3
Ntp1509
Rp1510
(dp1511
g7
S'so great in size or force or extent as to elicit awe .'
p1512
sg9
g10
sg11
S'prodigious (adjective):'
p1513
sg13
S'After the relatively small homerun totals in the "dead ball" era, Babe Ruth\'s homerun totals were truly prodigious: every year, he set a new all-time record.'
p1514
sbag1
(g2
g3
Ntp1515
Rp1516
(dp1517
g7
S''
p1518
sg9
g10
sg11
S'profligate (adjective):'
p1519
sg13
S'spending money recklessly or wastefully'
p1520
sbag1
(g2
g3
Ntp1521
Rp1522
(dp1523
g7
S'someone who spends money recklessly or wastefully .'
p1524
sg9
g10
sg11
S'profligate (noun):'
p1525
sg13
S'Most lottery winners go from being conservative, frugal types to outright profligates who blow millions on fast cars, lavish homes, and giant yachts.'
p1526
sbag1
(g2
g3
Ntp1527
Rp1528
(dp1529
g7
S'intellectually productive .'
p1530
sg9
g10
sg11
S'prolific (adjective):'
p1531
sg13
S'Schubert was the most prolific composer, producing hundreds of hours of music before he died at the age of 31.'
p1532
sbag1
(g2
g3
Ntp1533
Rp1534
(dp1535
g7
S'presenting favorable circumstances; likely to result in or show signs of success .'
p1536
sg9
g10
sg11
S'propitious (adjective):'
p1537
sg13
S"The child's heartbeat is still weak, but I am seeing many propitious signs and I think that she may be healing."
p1538
sbag1
(g2
g3
Ntp1539
Rp1540
(dp1541
g7
S'characteristic of the a limited perspective; not fashionable or sophisticated .'
p1542
sg9
g10
sg11
S'provincial (adjective):'
p1543
sg13
S"Maggie's enthusiasm about her high school teams seemed provincial to her college classmates, all of whom were following a nationally ranked college team."
p1544
sbag1
(g2
g3
Ntp1545
Rp1546
(dp1547
g7
S'someone who has been admitted to membership in a scholarly field .'
p1548
sg9
g10
sg11
S'pundit (noun):'
p1549
sg13
S"Steven Pinker's credentials are unquestioned as a pundit; he has taught at MIT and Stanford, teaches at Harvard, and has published a number of influential books on cognition, language, and psychology."
p1550
sbag1
(g2
g3
Ntp1551
Rp1552
(dp1553
g7
S'to be legally competent or capable .'
p1554
sg9
g10
sg11
S'qualify (adjective):'
p1555
sg13
S"If James had made more than $50,000 last year, then he wouldn't have qualified for the low-income scholarship."
p1556
sbag1
(g2
g3
Ntp1557
Rp1558
(dp1559
g7
S'to make less severe; to limit (a statement) .'
p1560
sg9
g10
sg11
S'qualify (verb):'
p1561
sg13
S"Chris qualified his love for San Francisco, adding that he didn't like the weather as much as the weather in Los Angeles."
p1562
sbag1
(g2
g3
Ntp1563
Rp1564
(dp1565
g7
S'habitually complaining .'
p1566
sg9
g10
sg11
S'querulous (adjective):'
p1567
sg13
S'The querulous old woman was begining to wear down even the happier members of the staff with her ceaseless complaining.'
p1568
sbag1
(g2
g3
Ntp1569
Rp1570
(dp1571
g7
S'found in the ordinary course of events .'
p1572
sg9
g10
sg11
S'quotidian (adjective):'
p1573
sg13
S"Phil gets so involved thinking about Aristotle's arguments that he totally forgets quotidian concerns, such as exercising and eating regularly."
p1574
sbag1
(g2
g3
Ntp1575
Rp1576
(dp1577
g7
S'extremely hungry; devouring or craving food in great quantities .'
p1578
sg9
g10
sg11
S'ravenous (adjective):'
p1579
sg13
S"John didn't each much at all during the week he had the flu, so now that he is regaining his health, it's not surpring that he has a ravenous appetite."
p1580
sbag1
(g2
g3
Ntp1581
Rp1582
(dp1583
g7
S'criticize severely or angrily; censure .'
p1584
sg9
g10
sg11
S'rebuke (verb):'
p1585
sg13
S'The police chief rebuked the two officers whose irresponsible decisions almost led to the deaths of seven innocent by-standers.'
p1586
sbag1
(g2
g3
Ntp1587
Rp1588
(dp1589
g7
S'make (one thing) compatible with (another) .'
p1590
sg9
g10
sg11
S'reconcile (verb):'
p1591
sg13
S'Peggy was unable to reconcile her kind friend Jane with the cruel and merciless character Jane played on television.'
p1592
sbag1
(g2
g3
Ntp1593
Rp1594
(dp1595
g7
S'difficult to penetrate; incomprehensible to one of ordinary understanding or knowledge .'
p1596
sg9
g10
sg11
S'recondite (adjective):'
p1597
sg13
S'I found Ulysses recondite and never finished the book, waiting instead to read it with someone else so we could penetrate its meaning together.'
p1598
sbag1
(g2
g3
Ntp1599
Rp1600
(dp1601
g7
S'stubbornly resistant to authority or control .'
p1602
sg9
g10
sg11
S'refractory (adjective):'
p1603
sg13
S'Used to studious high school students, Martha was unprepared for the refractory Kindgergarteners who neither sat still nor listened to a single word she said. This word has other definitions but this is the most important one for the GRE'
p1604
sbag1
(g2
g3
Ntp1605
Rp1606
(dp1607
g7
S'prove to be false or incorrect .'
p1608
sg9
g10
sg11
S'refute (verb):'
p1609
sg13
S'No one could refute his theories or propositions, and that is why he was esteemed by all his colleagues in the philosophy department.'
p1610
sbag1
(g2
g3
Ntp1611
Rp1612
(dp1613
g7
S'to express criticism towards .'
p1614
sg9
g10
sg11
S'reproach (verb):'
p1615
sg13
S"At first, Sarah was going to yell at the boy, but she didn't want to reproach him for telling the truth about the situation."
p1616
sbag1
(g2
g3
Ntp1617
Rp1618
(dp1619
g7
S'reject as untrue or unfounded .'
p1620
sg9
g10
sg11
S'repudiate (verb):'
p1621
sg13
S'Many in the public believed the rumors of a UFO crash outside town, so the chief of police did everything he could to repudiate the rumors.'
p1622
sbag1
(g2
g3
Ntp1623
Rp1624
(dp1625
g7
S'cancel officially .'
p1626
sg9
g10
sg11
S'rescind (verb):'
p1627
sg13
S"The man's driver's license was rescinded after his tenth car accident, which meant he would never be allowed to legally drive again."
p1628
sbag1
(g2
g3
Ntp1629
Rp1630
(dp1631
g7
S'restless .'
p1632
sg9
g10
sg11
S'restive (adjective):'
p1633
sg13
S"The crowd grew restive as the comedian's opening jokes fell flat."
p1634
sbag1
(g2
g3
Ntp1635
Rp1636
(dp1637
g7
S'rising again as to new life and vigor .'
p1638
sg9
g10
sg11
S'resurgent (adjective):'
p1639
sg13
S'The team sank to fourth place in June, but is now resurgent and about to win the division.'
p1640
sbag1
(g2
g3
Ntp1641
Rp1642
(dp1643
g7
S'reluctant to draw attention to yourself; temperamentally disinclined to talk .'
p1644
sg9
g10
sg11
S'reticent (adjective):'
p1645
sg13
S'When asked about her father, Helen lost her outward enthusiasm and became rather reticent.'
p1646
sbag1
(g2
g3
Ntp1647
Rp1648
(dp1649
g7
S'feeling or showing profound respect or veneration .'
p1650
sg9
g10
sg11
S'reverent (adjective):'
p1651
sg13
S'The professor could speak objectively about the other composers, but he always lectured about Brahms with a particularly reverent air, unable to offer a single criticism of his compositions.'
p1652
sbag1
(g2
g3
Ntp1653
Rp1654
(dp1655
g7
S'being in the earliest stages of development; being or involving basic facts or principles .'
p1656
sg9
g10
sg11
S'rudimentary (adjective):'
p1657
sg13
S'I would love to be able to present a fully polished proposal to the board, but right now, our plans for the product are still in the most rudimentary stages.'
p1658
sbag1
(g2
g3
Ntp1659
Rp1660
(dp1661
g7
S'characteristic of rural life; awkwardly simple and provincial .'
p1662
sg9
g10
sg11
S'rustic (adjective):'
p1663
sg13
S'The vacation cabin had no electricity and no indoor plumbing, but despite these inconveniences, Nigel adored its rustic charm.'
p1664
sbag1
(g2
g3
Ntp1665
Rp1666
(dp1667
g7
S'give authority or permission to .'
p1668
sg9
g10
sg11
S'sanction (verb):'
p1669
sg13
S'The authorities have sanctioned the use of the wilderness reserve for public use; many expect to see hikers an campers enjoying the park in the coming months.'
p1670
sbag1
(g2
g3
Ntp1671
Rp1672
(dp1673
g7
S'a legal penalty for a forbidden action .'
p1674
sg9
g10
sg11
S'sanction (noun):'
p1675
sg13
S'International sanctions have been placed on certain shipping lanes that were thought to be involved in human trafficking.'
p1676
sbag1
(g2
g3
Ntp1677
Rp1678
(dp1679
g7
S'characterized by extreme care and great effort .'
p1680
sg9
g10
sg11
S'scrupulous (adjective):'
p1681
sg13
S'Because of his scrupulous nature, Mary put him in charge of numbering and cataloging the entire collection of rare stamps.'
p1682
sbag1
(g2
g3
Ntp1683
Rp1684
(dp1685
g7
S'having a sense of right and wrong; principled .'
p1686
sg9
g10
sg11
S'scrupulous (adjective):'
p1687
sg13
S'Everyone trusted what he said and followed his example because he was scrupulous and honest.'
p1688
sbag1
(g2
g3
Ntp1689
Rp1690
(dp1691
g7
S'inducing mental lethargy; sleep inducing .'
p1692
sg9
g10
sg11
S'soporific (adjective):'
p1693
sg13
S'Although the professor is brilliant, his bland monotone gives his lectures a soporific effect.'
p1694
sbag1
(g2
g3
Ntp1695
Rp1696
(dp1697
g7
S'based on pretense; deceptively pleasing .'
p1698
sg9
g10
sg11
S'specious (adjective):'
p1699
sg13
S'Almost every image on TV is specious and not to be trusted.'
p1700
sbag1
(g2
g3
Ntp1701
Rp1702
(dp1703
g7
S'plausible but false .'
p1704
sg9
g10
sg11
S'specious (adjective):'
p1705
sg13
S'He made a career out of specious arguments and fictional lab results, but lost his job and reputation when his lies were exposed by an article in The New York Times.'
p1706
sbag1
(g2
g3
Ntp1707
Rp1708
(dp1709
g7
S'recurring in scattered and irregular or unpredictable instances .'
p1710
sg9
g10
sg11
S'sporadic (adjective):'
p1711
sg13
S'The signals were at first sporadic, but now we detect a clear, consistent pattern of electromagnetic radiation eminating from deep space.'
p1712
sbag1
(g2
g3
Ntp1713
Rp1714
(dp1715
g7
S'plausible but false .'
p1716
sg9
g10
sg11
S'spurious (adjective):'
p1717
sg13
S'When listening to a politician speak, it is hard to distinguish the spurious claims from the authentic ones.'
p1718
sbag1
(g2
g3
Ntp1719
Rp1720
(dp1721
g7
S'firm and dependable especially in loyalty .'
p1722
sg9
g10
sg11
S'staunch (adjective):'
p1723
sg13
S'No longer a staunch supporter of the movement, Todd now will openly question whether its goals are worthwhile.'
p1724
sbag1
(g2
g3
Ntp1725
Rp1726
(dp1727
g7
S'demanding strict attention to rules and procedures .'
p1728
sg9
g10
sg11
S'stringent (adjective):'
p1729
sg13
S'Most of the students disliked the teacher because of his stringent homework policy, but many students would later thank him for demanding so much from them.'
p1730
sbag1
(g2
g3
Ntp1731
Rp1732
(dp1733
g7
S'contain or include .'
p1734
sg9
g10
sg11
S'subsume (verb):'
p1735
sg13
S'The rogue wave quickly subsumed the pier and boardwalk, destroying everything in its path.'
p1736
sbag1
(g2
g3
Ntp1737
Rp1738
(dp1739
g7
S'consider (an instance of something) as part of a general rule or principle .'
p1740
sg9
g10
sg11
S'subsume (verb):'
p1741
sg13
S'Don Quixote of La Mancha subsumes all other modern novels, demonstrating modern literary devices and predating even the idea of a postmodern, metanarrative.'
p1742
sbag1
(g2
g3
Ntp1743
Rp1744
(dp1745
g7
S'in opposition to a civil authority or government .'
p1746
sg9
g10
sg11
S'subversive (adjective):'
p1747
sg13
S'The ruling political party has begun a campaign to shut down subversive websites that it deems as a threat to "national safety."'
p1748
sbag1
(g2
g3
Ntp1749
Rp1750
(dp1751
g7
S'showing a brooding ill humor .'
p1752
sg9
g10
sg11
S'sullen (adjective):'
p1753
sg13
S'Herbert took board games too seriously, often appearing sullen after losing.'
p1754
sbag1
(g2
g3
Ntp1755
Rp1756
(dp1757
g7
S'serving no useful purpose .'
p1758
sg9
g10
sg11
S'superfluous (adjective):'
p1759
sg13
S"How can we hope to stay open if we don't eliminate all superfluous spending, like catered meetings and free acupucture Tuesday?"
p1760
sbag1
(g2
g3
Ntp1761
Rp1762
(dp1763
g7
S'more than is needed, desired, or required .'
p1764
sg9
g10
sg11
S'superfluous (adjective):'
p1765
sg13
S'Everything in this closet is superfluous and can be given to charity.'
p1766
sbag1
(g2
g3
Ntp1767
Rp1768
(dp1769
g7
S'take the place or move into the position of .'
p1770
sg9
g10
sg11
S'supplant (verb):'
p1771
sg13
S"For many, a cell phone has supplanted a traditional phone; in fact, most 20-somethings don't even have a traditional phone anymore."
p1772
sbag1
(g2
g3
Ntp1773
Rp1774
(dp1775
g7
S'a person who tries to please someone in order to gain a personal advantage .'
p1776
sg9
g10
sg11
S'sycophant (noun):'
p1777
sg13
S'The CEO was unaware of the damaging consequences of his choices, largely because he surrounded himself with sycophants who would never dare criticize him.'
p1778
sbag1
(g2
g3
Ntp1779
Rp1780
(dp1781
g7
S'habitually reserved and uncommunicative .'
p1782
sg9
g10
sg11
S'taciturn (adjective):'
p1783
sg13
S'While the CEO enthusiastically shares his plans and agenda with all who will listen, the CFO is far more taciturn, rarely revealing his perspective.'
p1784
sbag1
(g2
g3
Ntp1785
Rp1786
(dp1787
g7
S'being essentially equal to something .'
p1788
sg9
g10
sg11
S'tantamount (adjective):'
p1789
sg13
S'In many situations, remaining silent is tantamount to admitting guilt, so speak to prove your innocence.'
p1790
sbag1
(g2
g3
Ntp1791
Rp1792
(dp1793
g7
S'the trait of avoiding excesses .'
p1794
sg9
g10
sg11
S'temperance (noun):'
p1795
sg13
S"Welles wasn't known for his temperance--he usually ate enough for two and drank enough for three."
p1796
sbag1
(g2
g3
Ntp1797
Rp1798
(dp1799
g7
S'moderated in effect .'
p1800
sg9
g10
sg11
S'tempered (adjective):'
p1801
sg13
S'The wide-eyed optimism of her youth was now tempered after she had worked many years in the criminal justice system.'
p1802
sbag1
(g2
g3
Ntp1803
Rp1804
(dp1805
g7
S'stubbornly unyielding .'
p1806
sg9
g10
sg11
S'tenacious (adjective):'
p1807
sg13
S'Even the most tenacious advocates for gun ownership must admit some of the dangers that firearms present.'
p1808
sbag1
(g2
g3
Ntp1809
Rp1810
(dp1811
g7
S'timid by nature or revealing fear and nervousness .'
p1812
sg9
g10
sg11
S'timorous (adjective):'
p1813
sg13
S"Since this was her first time debating on stage and before an audience, Di's voice was timorous and quiet for the first 10 minutes."
p1814
sbag1
(g2
g3
Ntp1815
Rp1816
(dp1817
g7
S'inactivity resulting from lethargy and lack of vigor or energy .'
p1818
sg9
g10
sg11
S'torpor (noun):'
p1819
sg13
S'After work, I was expecting my colleagues to be enthusiastic about the outing, but I found them in a state of complete torpor.'
p1820
sbag1
(g2
g3
Ntp1821
Rp1822
(dp1823
g7
S'marked by repeated turns and bends; not straightforward .'
p1824
sg9
g10
sg11
S'tortuous (adjective):'
p1825
sg13
S"Because the logic behind McMahon's side of the debate was so tortuous, his audience came out either completely confused or, worse, feeling they'd been tricked."
p1826
sbag1
(g2
g3
Ntp1827
Rp1828
(dp1829
g7
S'readily reacting to suggestions and influences; easily managed (controlled or taught or molded) .'
p1830
sg9
g10
sg11
S'tractable (adjective):'
p1831
sg13
S'Compared to middle school students, who have an untamed wildness about them, high school students are somewhat more tractable.'
p1832
sbag1
(g2
g3
Ntp1833
Rp1834
(dp1835
g7
S'lasting a very short time .'
p1836
sg9
g10
sg11
S'transient (adjective):'
p1837
sg13
S'The unpredictable and transient nature of deja vu makes it a very difficult phenomenon to study properly.'
p1838
sbag1
(g2
g3
Ntp1839
Rp1840
(dp1841
g7
S'an absurd presentation of something; a mockery .'
p1842
sg9
g10
sg11
S'travesty (noun):'
p1843
sg13
S'What I expected to be an intelligent, nuanced historical documentary turned out to be a poorly-produced travesty of the form.'
p1844
sbag1
(g2
g3
Ntp1845
Rp1846
(dp1847
g7
S'tending to betray .'
p1848
sg9
g10
sg11
S'treacherous (adjective):'
p1849
sg13
S'Even though Jesse James was an outlaw, his killer, Robert Ford, is remembered more for his treacherous actions than for eliminating a criminal and murder.'
p1850
sbag1
(g2
g3
Ntp1851
Rp1852
(dp1853
g7
S'dangerously unstable and unpredictable .'
p1854
sg9
g10
sg11
S'treacherous (adjective):'
p1855
sg13
S'The bridge built from twine and vine is treacherous to walk across, and so I think I will stay put right here.'
p1856
sbag1
(g2
g3
Ntp1857
Rp1858
(dp1859
g7
S'repeated too often; overfamiliar through overuse .'
p1860
sg9
g10
sg11
S'trite (adjective):'
p1861
sg13
S'Many style guides recommend not using idioms in writing because these trite expressions are uninteresting and show a lack of imagination on the part of the writer.'
p1862
sbag1
(g2
g3
Ntp1863
Rp1864
(dp1865
g7
S'reduce the length of something .'
p1866
sg9
g10
sg11
S'truncate (verb):'
p1867
sg13
S'The soccer game was truncated when the monsoon rain began to fall.'
p1868
sbag1
(g2
g3
Ntp1869
Rp1870
(dp1871
g7
S'to weaken (usually paired with an abstract term) .'
p1872
sg9
g10
sg11
S'undermine (adjective):'
p1873
sg13
S"The student undermined the teacher's authority by questioning the teacher's judgment on numerous occasions."
p1874
sbag1
(g2
g3
Ntp1875
Rp1876
(dp1877
g7
S'give extra weight to (a communication) .'
p1878
sg9
g10
sg11
S'underscore (verb):'
p1879
sg13
S'While the hiking instructor agreed that carrying a first aid kit could be a good idea under certain circumstances, he underscored the importance of carrying enough water.'
p1880
sbag1
(g2
g3
Ntp1881
Rp1882
(dp1883
g7
S'admitting of no doubt or misunderstanding; having only one meaning or interpretation and leading to only one conclusion .'
p1884
sg9
g10
sg11
S'unequivocal (adjective):'
p1885
sg13
S"The President's first statement on the subject was vague and open to competing interpretations, so when he spoke to Congress about the same subject later, he was cafeful to make his position completely unequivocal."
p1886
sbag1
(g2
g3
Ntp1887
Rp1888
(dp1889
g7
S'without scruples or principles .'
p1890
sg9
g10
sg11
S'unscrupulous (adjective):'
p1891
sg13
S'In the courtroom, the lawyer was unscrupulous, using every manner of deceit and manipulation to secure a victory for himself.'
p1892
sbag1
(g2
g3
Ntp1893
Rp1894
(dp1895
g7
S'to reproach; to scold .'
p1896
sg9
g10
sg11
S'upbraid (verb):'
p1897
sg13
S'Bob took a risk walking into the "Students Barbershop"--in the end he had to upbraid the apparently drunk barber for giving him an uneven bowl cut.'
p1898
sbag1
(g2
g3
Ntp1899
Rp1900
(dp1901
g7
S'be undecided about something; waver between conflicting positions or courses of action .'
p1902
sg9
g10
sg11
S'vacillate (verb):'
p1903
sg13
S'Some students vacillate between schools when deciding which to attend, while others focus only on one school. This word has other definitions but this is the most important one for the GRE'
p1904
sbag1
(g2
g3
Ntp1905
Rp1906
(dp1907
g7
S'marked by extreme intensity of emotions or convictions .'
p1908
sg9
g10
sg11
S'vehement (adjective):'
p1909
sg13
S'While the other employees responded to the bad news in a measured way, Andrew responded in a vehement manner, tipping over his desk and shouting at the top of his lungs.'
p1910
sbag1
(g2
g3
Ntp1911
Rp1912
(dp1913
g7
S'the condition of being susceptible to bribes or corruption .'
p1914
sg9
g10
sg11
S'venality (noun):'
p1915
sg13
S'Even some of the most sacrosanct sporting events are not immune to venality, as many of the officials have received substantial bribes to make biased calls.'
p1916
sbag1
(g2
g3
Ntp1917
Rp1918
(dp1919
g7
S'to respect deeply .'
p1920
sg9
g10
sg11
S'venerate (verb):'
p1921
sg13
S'The professor, despite his soporific lectures, was venerated amongst his colleagues, publishing more papers yearly than all of his peers combined.'
p1922
sbag1
(g2
g3
Ntp1923
Rp1924
(dp1925
g7
S'truthful .'
p1926
sg9
g10
sg11
S'veracious (adjective):'
p1927
sg13
S'While we elect our leaders in the hope that every word they speak will be veracious, history has shown that such a hope is naive.'
p1928
sbag1
(g2
g3
Ntp1929
Rp1930
(dp1931
g7
S'spread negative information about .'
p1932
sg9
g10
sg11
S'vilify (verb):'
p1933
sg13
S'Todd was noble after the divorce, choosing to say only complimentary things about Barbara, but Barbara did not hesitate to vilify Todd.'
p1934
sbag1
(g2
g3
Ntp1935
Rp1936
(dp1937
g7
S'to clear of accusation, blame, suspicion, or doubt with supporting arguments or proof .'
p1938
sg9
g10
sg11
S'vindicate (verb):'
p1939
sg13
S'Even seven Tour de France wins cannot vindicate Lance Armstrong in the eyes of the public--that the athlete used performance enhancing drugs invalidates all those wins.'
p1940
sbag1
(g2
g3
Ntp1941
Rp1942
(dp1943
g7
S'conspicuously and offensively loud; given to vehement outcry .'
p1944
sg9
g10
sg11
S'vociferous (adjective):'
p1945
sg13
S'In giving Marcia a particular vociferous response, Paul caused people at every other table in the restaurant to turn around an look at them angrily.'
p1946
sbag1
(g2
g3
Ntp1947
Rp1948
(dp1949
g7
S'the quality of talking or writing easily and continuously .'
p1950
sg9
g10
sg11
S'volubility (noun):'
p1951
sg13
S"The professor's volubility knows no bounds; he could talk through a hurricane and elaborate a point from one St. Patrick's Day to the next."
p1952
sbag1
(g2
g3
Ntp1953
Rp1954
(dp1955
g7
S'lacking .'
p1956
sg9
g10
sg11
S'wanting (adjective):'
p1957
sg13
S"She did not think her vocabulary was wanting, yet there were so many words that inevitably she found a few she didn't know."
p1958
sbag1
(g2
g3
Ntp1959
Rp1960
(dp1961
g7
S'charming in a childlike or naive way .'
p1962
sg9
g10
sg11
S'winsome (adjective):'
p1963
sg13
S'She was winsome by nature, and many people were drawn to this free and playful spirit.'
p1964
sba.